(dp1
S'files'
p2
(dp3
S'IPython_html_services_kernels___init__'
p4
(dp5
S'index'
p6
(dp7
S'html_filename'
p8
S'IPython_html_services_kernels___init__.html'
p9
sS'name'
p10
S'IPython/html/services/kernels/__init__'
p11
sS'nums'
p12
ccopy_reg
_reconstructor
p13
(ccoverage.results
Numbers
p14
c__builtin__
object
p15
NtRp16
(dp17
S'n_files'
p18
I1
sS'n_branches'
p19
I0
sS'n_statements'
p20
I0
sS'n_excluded'
p21
I0
sS'n_partial_branches'
p22
I0
sS'n_missing'
p23
I0
sS'n_missing_branches'
p24
I0
sbssS'hash'
p25
S'\xca\xf5\x9f\x7f\x88\xdfa\x831|T\x1d\xbc}\xa5v'
p26
ssS'_usr_share_pyshared_zmq_devices_monitoredqueuedevice'
p27
(dp28
g6
(dp29
g8
S'_usr_share_pyshared_zmq_devices_monitoredqueuedevice.html'
p30
sg10
S'/usr/share/pyshared/zmq/devices/monitoredqueuedevice'
p31
sg12
g13
(g14
g15
NtRp32
(dp33
g18
I1
sg19
I0
sg20
I44
sg21
I0
sg22
I0
sg23
I24
sg24
I0
sbssg25
S'\x07\x9ex\xd9\xf3Z\x00\xba\xd2fw\xec\x17\xa2\xf4\xc6'
p34
ssS'IPython___init__'
p35
(dp36
g6
(dp37
g8
S'IPython___init__.html'
p38
sg10
S'IPython/__init__'
p39
sg12
g13
(g14
g15
NtRp40
(dp41
g18
I1
sg19
I0
sg20
I35
sg21
I0
sg22
I0
sg23
I10
sg24
I0
sbssg25
S'\xdfe\xb2G\xa8F^\xb8)f\x85=\xaai[\xa5'
p42
ssS'_usr_share_pyshared_zmq_utils_strtypes'
p43
(dp44
g6
(dp45
g8
S'_usr_share_pyshared_zmq_utils_strtypes.html'
p46
sg10
S'/usr/share/pyshared/zmq/utils/strtypes'
p47
sg12
g13
(g14
g15
NtRp48
(dp49
g18
I1
sg19
I0
sg20
I14
sg21
I0
sg22
I0
sg23
I4
sg24
I0
sbssg25
S'r\x1b\x12\xecQ\x86\xf7\x89y\xf5\xed\xffF\xda\xb3a'
p50
ssS'_usr_local_lib_python2_7_dist-packages_numpy-1_8_1-py2_7-linux-i686_egg_numpy_random___init__'
p51
(dp52
g6
(dp53
g8
S'_usr_local_lib_python2_7_dist-packages_numpy-1_8_1-py2_7-linux-i686_egg_numpy_random___init__.html'
p54
sg10
S'/usr/local/lib/python2.7/dist-packages/numpy-1.8.1-py2.7-linux-i686.egg/numpy/random/__init__'
p55
sg12
g13
(g14
g15
NtRp56
(dp57
g18
I1
sg19
I0
sg20
I13
sg21
I0
sg22
I0
sg23
I1
sg24
I0
sbssg25
S'|\x9d\xe3\xdd\x88\x1f>\xa0\xb1\xbd\x82f-\x81\xd4\x88'
p58
ssS'IPython_external_decorator___init__'
p59
(dp60
g6
(dp61
g8
S'IPython_external_decorator___init__.html'
p62
sg10
S'IPython/external/decorator/__init__'
p63
sg12
g13
(g14
g15
NtRp64
(dp65
g18
I1
sg19
I0
sg20
I4
sg21
I0
sg22
I0
sg23
I2
sg24
I0
sbssg25
S'k\xcb\xde\xc8Y>\xd8\xdel!q\xf1\xf6[\x01\xb6'
p66
ssS'IPython_utils_text'
p67
(dp68
g6
(dp69
g8
S'IPython_utils_text.html'
p70
sg10
S'IPython/utils/text'
p71
sg12
g13
(g14
g15
NtRp72
(dp73
g18
I1
sg19
I0
sg20
I252
sg21
I0
sg22
I0
sg23
I186
sg24
I0
sbssg25
S'\x1b\xba\xad\x874\x16\x08\xb1yY^\x08%\x1d\xc9\xeb'
p74
ssS'IPython_utils_ipstruct'
p75
(dp76
g6
(dp77
g8
S'IPython_utils_ipstruct.html'
p78
sg10
S'IPython/utils/ipstruct'
p79
sg12
g13
(g14
g15
NtRp80
(dp81
g18
I1
sg19
I0
sg20
I76
sg21
I0
sg22
I0
sg23
I44
sg24
I0
sbssg25
S'MYo=\xb0\xeb>Q\xe4\x04\x89N}\x90\xea^'
p82
ssS'_usr_local_lib_python2_7_dist-packages_numpy-1_8_1-py2_7-linux-i686_egg_numpy___config__'
p83
(dp84
g6
(dp85
g8
S'_usr_local_lib_python2_7_dist-packages_numpy-1_8_1-py2_7-linux-i686_egg_numpy___config__.html'
p86
sg10
S'/usr/local/lib/python2.7/dist-packages/numpy-1.8.1-py2.7-linux-i686.egg/numpy/__config__'
p87
sg12
g13
(g14
g15
NtRp88
(dp89
g18
I1
sg19
I0
sg20
I29
sg21
I0
sg22
I0
sg23
I12
sg24
I0
sbssg25
S'\x03lu~\xe8\nw\x0f\xe9\xd2Am\xe6\xbf\x16\x11'
p90
ssS'_usr_local_lib_python2_7_dist-packages_numpy-1_8_1-py2_7-linux-i686_egg_numpy___init__'
p91
(dp92
g6
(dp93
g8
S'_usr_local_lib_python2_7_dist-packages_numpy-1_8_1-py2_7-linux-i686_egg_numpy___init__.html'
p94
sg10
S'/usr/local/lib/python2.7/dist-packages/numpy-1.8.1-py2.7-linux-i686.egg/numpy/__init__'
p95
sg12
g13
(g14
g15
NtRp96
(dp97
g18
I1
sg19
I0
sg20
I56
sg21
I0
sg22
I0
sg23
I10
sg24
I0
sbssg25
S'\t\x00=\x82\x82G\x99J\x98C\x98\n\xe3\xb8\x83\x17'
p98
ssS'IPython_kernel_channelsabc'
p99
(dp100
g6
(dp101
g8
S'IPython_kernel_channelsabc.html'
p102
sg10
S'IPython/kernel/channelsabc'
p103
sg12
g13
(g14
g15
NtRp104
(dp105
g18
I1
sg19
I0
sg20
I45
sg21
I0
sg22
I0
sg23
I16
sg24
I0
sbssg25
S'\xbaxHN|\xea\x17+g\x9f\xf2\xf5Rb\xe5Q'
p106
ssS'IPython_kernel_comm_comm'
p107
(dp108
g6
(dp109
g8
S'IPython_kernel_comm_comm.html'
p110
sg10
S'IPython/kernel/comm/comm'
p111
sg12
g13
(g14
g15
NtRp112
(dp113
g18
I1
sg19
I0
sg20
I68
sg21
I0
sg22
I0
sg23
I35
sg24
I0
sbssg25
S'\x84\xee%\x98\xb0\xbf\xc9A\xc4$\xc0a\x96c\x96\x97'
p114
ssS'IPython_config_loader'
p115
(dp116
g6
(dp117
g8
S'IPython_config_loader.html'
p118
sg10
S'IPython/config/loader'
p119
sg12
g13
(g14
g15
NtRp120
(dp121
g18
I1
sg19
I0
sg20
I393
sg21
I0
sg22
I0
sg23
I194
sg24
I0
sbssg25
S'ks&\xdc\xa5~pq-\r\xb6\xd8\x9dg\xe7\x07'
p122
ssS'IPython_nbformat_sign'
p123
(dp124
g6
(dp125
g8
S'IPython_nbformat_sign.html'
p126
sg10
S'IPython/nbformat/sign'
p127
sg12
g13
(g14
g15
NtRp128
(dp129
g18
I1
sg19
I0
sg20
I146
sg21
I0
sg22
I0
sg23
I46
sg24
I0
sbssg25
S'\xaf\x88\xee\xcb\xcd\x99\x931\x10\x0b\x1dGmp\xff\xd4'
p130
ssS'_usr_local_lib_python2_7_dist-packages_tornado-3_2-py2_7-linux-i686_egg_tornado_util'
p131
(dp132
g6
(dp133
g8
S'_usr_local_lib_python2_7_dist-packages_tornado-3_2-py2_7-linux-i686_egg_tornado_util.html'
p134
sg10
S'/usr/local/lib/python2.7/dist-packages/tornado-3.2-py2.7-linux-i686.egg/tornado/util'
p135
sg12
g13
(g14
g15
NtRp136
(dp137
g18
I1
sg19
I0
sg20
I100
sg21
I0
sg22
I0
sg23
I65
sg24
I0
sbssg25
S"0\x1c\x11|'G\xfd6*\x9d\xe3\xd2Vm\xf7\xcb"
p138
ssS'_usr_local_lib_python2_7_dist-packages_numpy-1_8_1-py2_7-linux-i686_egg_numpy__import_tools'
p139
(dp140
g6
(dp141
g8
S'_usr_local_lib_python2_7_dist-packages_numpy-1_8_1-py2_7-linux-i686_egg_numpy__import_tools.html'
p142
sg10
S'/usr/local/lib/python2.7/dist-packages/numpy-1.8.1-py2.7-linux-i686.egg/numpy/_import_tools'
p143
sg12
g13
(g14
g15
NtRp144
(dp145
g18
I1
sg19
I0
sg20
I224
sg21
I0
sg22
I0
sg23
I203
sg24
I0
sbssg25
S'\xe7\xcb\xd4U\xd4\x1f(s\xb1\x1a\x7f\x19\xe5!\xff\xbf'
p146
ssS'IPython_parallel_apps_baseapp'
p147
(dp148
g6
(dp149
g8
S'IPython_parallel_apps_baseapp.html'
p150
sg10
S'IPython/parallel/apps/baseapp'
p151
sg12
g13
(g14
g15
NtRp152
(dp153
g18
I1
sg19
I0
sg20
I131
sg21
I0
sg22
I0
sg23
I84
sg24
I0
sbssg25
S"V~\xff\x1ei\xeam'M\x0fXUXE\x98\xa6"
p154
ssS'_usr_share_pyshared_zmq_devices_basedevice'
p155
(dp156
g6
(dp157
g8
S'_usr_share_pyshared_zmq_devices_basedevice.html'
p158
sg10
S'/usr/share/pyshared/zmq/devices/basedevice'
p159
sg12
g13
(g14
g15
NtRp160
(dp161
g18
I1
sg19
I0
sg20
I83
sg21
I0
sg22
I0
sg23
I52
sg24
I0
sbssg25
S'\x1c\xc2>\xfb\xc1\xc2\xc6,\xf2\xddv\x1c!o\x91u'
p162
ssS'IPython_nbformat_v3_rwbase'
p163
(dp164
g6
(dp165
g8
S'IPython_nbformat_v3_rwbase.html'
p166
sg10
S'IPython/nbformat/v3/rwbase'
p167
sg12
g13
(g14
g15
NtRp168
(dp169
g18
I1
sg19
I0
sg20
I91
sg21
I0
sg22
I0
sg23
I54
sg24
I0
sbssg25
S'\x1aC\x8a=\x8a1V\xe0\xc9y\xca8\xe1,\xed\xca'
p170
ssS'_usr_local_lib_python2_7_dist-packages_tornado-3_2-py2_7-linux-i686_egg_tornado_tcpserver'
p171
(dp172
g6
(dp173
g8
S'_usr_local_lib_python2_7_dist-packages_tornado-3_2-py2_7-linux-i686_egg_tornado_tcpserver.html'
p174
sg10
S'/usr/local/lib/python2.7/dist-packages/tornado-3.2-py2.7-linux-i686.egg/tornado/tcpserver'
p175
sg12
g13
(g14
g15
NtRp176
(dp177
g18
I1
sg19
I0
sg20
I76
sg21
I0
sg22
I0
sg23
I36
sg24
I0
sbssg25
S'\x85\xadC\xb9\x81UgU\xca(\x18\xbbH\xcf\x8b='
p178
ssS'IPython_html_notebook_handlers'
p179
(dp180
g6
(dp181
g8
S'IPython_html_notebook_handlers.html'
p182
sg10
S'IPython/html/notebook/handlers'
p183
sg12
g13
(g14
g15
NtRp184
(dp185
g18
I1
sg19
I0
sg20
I33
sg21
I0
sg22
I0
sg23
I15
sg24
I0
sbssg25
S'\xee\x93\r\x17\xa1\x0f\xce\x94\xf9\xce\x99\x0c\x04\x98\x95h'
p186
ssS'IPython_nbformat_v1___init__'
p187
(dp188
g6
(dp189
g8
S'IPython_nbformat_v1___init__.html'
p190
sg10
S'IPython/nbformat/v1/__init__'
p191
sg12
g13
(g14
g15
NtRp192
(dp193
g18
I1
sg19
I0
sg20
I5
sg21
I0
sg22
I0
sg23
I0
sg24
I0
sbssg25
S'2n\xd1q\xed\xdd\xb6eSZd\x83"\x08\xb4Z'
p194
ssS'IPython_parallel_error'
p195
(dp196
g6
(dp197
g8
S'IPython_parallel_error.html'
p198
sg10
S'IPython/parallel/error'
p199
sg12
g13
(g14
g15
NtRp200
(dp201
g18
I1
sg19
I0
sg20
I130
sg21
I0
sg22
I0
sg23
I76
sg24
I0
sbssg25
S',\xe3\x1a\xd1\x92\x00H,\x02\xf6I\xd4\xf4\xec\xe4\xa7'
p202
ssS'_usr_local_lib_python2_7_dist-packages_numpy-1_8_1-py2_7-linux-i686_egg_numpy_lib_polynomial'
p203
(dp204
g6
(dp205
g8
S'_usr_local_lib_python2_7_dist-packages_numpy-1_8_1-py2_7-linux-i686_egg_numpy_lib_polynomial.html'
p206
sg10
S'/usr/local/lib/python2.7/dist-packages/numpy-1.8.1-py2.7-linux-i686.egg/numpy/lib/polynomial'
p207
sg12
g13
(g14
g15
NtRp208
(dp209
g18
I1
sg19
I0
sg20
I386
sg21
I0
sg22
I0
sg23
I328
sg24
I0
sbssg25
S"\xdeOM\x80\x85\xd4\xcc\xfb\xd7l'j\xf2!\xc5="
p210
ssS'_usr_local_lib_python2_7_dist-packages_tornado-3_2-py2_7-linux-i686_egg_tornado_platform_posix'
p211
(dp212
g6
(dp213
g8
S'_usr_local_lib_python2_7_dist-packages_tornado-3_2-py2_7-linux-i686_egg_tornado_platform_posix.html'
p214
sg10
S'/usr/local/lib/python2.7/dist-packages/tornado-3.2-py2.7-linux-i686.egg/tornado/platform/posix'
p215
sg12
g13
(g14
g15
NtRp216
(dp217
g18
I1
sg19
I0
sg20
I40
sg21
I0
sg22
I0
sg23
I24
sg24
I0
sbssg25
S'1\x95\xab\x91\xca%\xef1\xf9\xa1d\xf3XL\xc0\x02'
p218
ssS'IPython_config___init__'
p219
(dp220
g6
(dp221
g8
S'IPython_config___init__.html'
p222
sg10
S'IPython/config/__init__'
p223
sg12
g13
(g14
g15
NtRp224
(dp225
g18
I1
sg19
I0
sg20
I4
sg21
I0
sg22
I0
sg23
I0
sg24
I0
sbssg25
S'\xc4\xdb\xfck\xff!\xff_e\x9b!\xaa"b\x1b\xa6'
p226
ssS'IPython_html_nbconvert_handlers'
p227
(dp228
g6
(dp229
g8
S'IPython_html_nbconvert_handlers.html'
p230
sg10
S'IPython/html/nbconvert/handlers'
p231
sg12
g13
(g14
g15
NtRp232
(dp233
g18
I1
sg19
I0
sg20
I85
sg21
I0
sg22
I0
sg23
I62
sg24
I0
sbssg25
S'Jj\xdc\x06\xc9\x9a\xe1\x9c\x11g7_\xa1{y\x94'
p234
ssS'IPython_nbformat_v3_convert'
p235
(dp236
g6
(dp237
g8
S'IPython_nbformat_v3_convert.html'
p238
sg10
S'IPython/nbformat/v3/convert'
p239
sg12
g13
(g14
g15
NtRp240
(dp241
g18
I1
sg19
I0
sg20
I31
sg21
I0
sg22
I0
sg23
I25
sg24
I0
sbssg25
S"\xd7_\x96\x9a\xcf]\xdf7I\xb7\x03\xc7\xf0\x13\xc9'"
p242
ssS'IPython_utils_importstring'
p243
(dp244
g6
(dp245
g8
S'IPython_utils_importstring.html'
p246
sg10
S'IPython/utils/importstring'
p247
sg12
g13
(g14
g15
NtRp248
(dp249
g18
I1
sg19
I0
sg20
I12
sg21
I0
sg22
I0
sg23
I3
sg24
I0
sbssg25
S'\xd4=s\xba\xe58\x10\x01\xc9E\x97\x91/\x0f\xc0\t'
p250
ssS'IPython_nbformat_v1_convert'
p251
(dp252
g6
(dp253
g8
S'IPython_nbformat_v1_convert.html'
p254
sg10
S'IPython/nbformat/v1/convert'
p255
sg12
g13
(g14
g15
NtRp256
(dp257
g18
I1
sg19
I0
sg20
I2
sg21
I0
sg22
I0
sg23
I1
sg24
I0
sbssg25
S'\xbb\xa3\xb86sJ\xe43\x00\xbd\xfd\xcd\x1b\x9d\xaa\xb6'
p258
ssS'_usr_local_lib_python2_7_dist-packages_numpy-1_8_1-py2_7-linux-i686_egg_numpy_core_getlimits'
p259
(dp260
g6
(dp261
g8
S'_usr_local_lib_python2_7_dist-packages_numpy-1_8_1-py2_7-linux-i686_egg_numpy_core_getlimits.html'
p262
sg10
S'/usr/local/lib/python2.7/dist-packages/numpy-1.8.1-py2.7-linux-i686.egg/numpy/core/getlimits'
p263
sg12
g13
(g14
g15
NtRp264
(dp265
g18
I1
sg19
I0
sg20
I132
sg21
I0
sg22
I0
sg23
I94
sg24
I0
sbssg25
S'f0\xee\xd8|[\xeebN\xbf\x07&\xfd\xefQ\xbb'
p266
ssS'IPython_core_application'
p267
(dp268
g6
(dp269
g8
S'IPython_core_application.html'
p270
sg10
S'IPython/core/application'
p271
sg12
g13
(g14
g15
NtRp272
(dp273
g18
I1
sg19
I0
sg20
I198
sg21
I0
sg22
I0
sg23
I82
sg24
I0
sbssg25
S' \xd4L\xa3\x19\xd2E\xb5`#\x95\x08{B\x9e\xe7'
p274
ssS'IPython_lib_inputhook'
p275
(dp276
g6
(dp277
g8
S'IPython_lib_inputhook.html'
p278
sg10
S'IPython/lib/inputhook'
p279
sg12
g13
(g14
g15
NtRp280
(dp281
g18
I1
sg19
I0
sg20
I210
sg21
I0
sg22
I0
sg23
I128
sg24
I0
sbssg25
S'\xef\xecL\xbcf\xcfA\x93\x91\x8b\xcd\x0f\x1f\x85\xb0\xa1'
p282
ssS'_usr_local_lib_python2_7_dist-packages_tornado-3_2-py2_7-linux-i686_egg_tornado_web'
p283
(dp284
g6
(dp285
g8
S'_usr_local_lib_python2_7_dist-packages_tornado-3_2-py2_7-linux-i686_egg_tornado_web.html'
p286
sg10
S'/usr/local/lib/python2.7/dist-packages/tornado-3.2-py2.7-linux-i686.egg/tornado/web'
p287
sg12
g13
(g14
g15
NtRp288
(dp289
g18
I1
sg19
I0
sg20
I1227
sg21
I0
sg22
I0
sg23
I625
sg24
I0
sbssg25
S'\x8cmh2\xb2x\xa9h\xed*\xaaKo\x0cLM'
p290
ssS'IPython_html___init__'
p291
(dp292
g6
(dp293
g8
S'IPython_html___init__.html'
p294
sg10
S'IPython/html/__init__'
p295
sg12
g13
(g14
g15
NtRp296
(dp297
g18
I1
sg19
I0
sg20
I3
sg21
I0
sg22
I0
sg23
I0
sg24
I0
sbssg25
S"DZ;O\xc76\xf2h'\x03\x13\xcf@H\x1b\xbb"
p298
ssS'IPython_utils_localinterfaces'
p299
(dp300
g6
(dp301
g8
S'IPython_utils_localinterfaces.html'
p302
sg10
S'IPython/utils/localinterfaces'
p303
sg12
g13
(g14
g15
NtRp304
(dp305
g18
I1
sg19
I0
sg20
I158
sg21
I0
sg22
I0
sg23
I83
sg24
I0
sbssg25
S'I\x07P]w\xb0;B\x98\x01\xa9q\\\x94\t\x9d'
p306
ssS'IPython_utils_io'
p307
(dp308
g6
(dp309
g8
S'IPython_utils_io.html'
p310
sg10
S'IPython/utils/io'
p311
sg12
g13
(g14
g15
NtRp312
(dp313
g18
I1
sg19
I0
sg20
I119
sg21
I0
sg22
I0
sg23
I76
sg24
I0
sbssg25
S'\tk0\x14\xe5\xa8\xb9\xbd1`\x0b\no\x87\xe0\xac'
p314
ssS'_usr_share_pyshared_simplejson_encoder'
p315
(dp316
g6
(dp317
g8
S'_usr_share_pyshared_simplejson_encoder.html'
p318
sg10
S'/usr/share/pyshared/simplejson/encoder'
p319
sg12
g13
(g14
g15
NtRp320
(dp321
g18
I1
sg19
I0
sg20
I292
sg21
I0
sg22
I0
sg23
I230
sg24
I0
sbssg25
S'\xf9\xb6 \x81\rh\xe5*=\x9f\xaf,H\xc0w\xe4'
p322
ssS'IPython_html_services_clusters_clustermanager'
p323
(dp324
g6
(dp325
g8
S'IPython_html_services_clusters_clustermanager.html'
p326
sg10
S'IPython/html/services/clusters/clustermanager'
p327
sg12
g13
(g14
g15
NtRp328
(dp329
g18
I1
sg19
I0
sg20
I107
sg21
I0
sg22
I0
sg23
I60
sg24
I0
sbssg25
S'C\xc1\x8d\x15\xb5\xabOgH\xc9\xa1E\xb1\xbb\x07\x84'
p330
ssS'_usr_local_lib_python2_7_dist-packages_jinja2_utils'
p331
(dp332
g6
(dp333
g8
S'_usr_local_lib_python2_7_dist-packages_jinja2_utils.html'
p334
sg10
S'/usr/local/lib/python2.7/dist-packages/jinja2/utils'
p335
sg12
g13
(g14
g15
NtRp336
(dp337
g18
I1
sg19
I0
sg20
I263
sg21
I0
sg22
I0
sg23
I163
sg24
I0
sbssg25
S'9\xb9\x19\xe5\x84/|\xea\x85\xf5\x1e\xc4 \xdd\xc3\xc8'
p338
ssS'IPython_core_autocall'
p339
(dp340
g6
(dp341
g8
S'IPython_core_autocall.html'
p342
sg10
S'IPython/core/autocall'
p343
sg12
g13
(g14
g15
NtRp344
(dp345
g18
I1
sg19
I0
sg20
I16
sg21
I0
sg22
I0
sg23
I5
sg24
I0
sbssg25
S'5ec\xb6\xe1\xcf0W\xceS\xc5\x89\xc8\x0c\xa0\xfe'
p346
ssS'IPython_core_payloadpage'
p347
(dp348
g6
(dp349
g8
S'IPython_core_payloadpage.html'
p350
sg10
S'IPython/core/payloadpage'
p351
sg12
g13
(g14
g15
NtRp352
(dp353
g18
I1
sg19
I0
sg20
I20
sg21
I0
sg22
I0
sg23
I12
sg24
I0
sbssg25
S'\x1c\x16\x00\xde\x84\xde\xc7^w.4*\xd8\xbf\xf4 '
p354
ssS'IPython_terminal___init__'
p355
(dp356
g6
(dp357
g8
S'IPython_terminal___init__.html'
p358
sg10
S'IPython/terminal/__init__'
p359
sg12
g13
(g14
g15
NtRp360
(dp361
g18
I1
sg19
I0
sg20
I0
sg21
I0
sg22
I0
sg23
I0
sg24
I0
sbssg25
S'\xca\xf5\x9f\x7f\x88\xdfa\x831|T\x1d\xbc}\xa5v'
p362
ssS'IPython_html_tree_handlers'
p363
(dp364
g6
(dp365
g8
S'IPython_html_tree_handlers.html'
p366
sg10
S'IPython/html/tree/handlers'
p367
sg12
g13
(g14
g15
NtRp368
(dp369
g18
I1
sg19
I0
sg20
I23
sg21
I0
sg22
I0
sg23
I7
sg24
I0
sbssg25
S'\x9c\x8d\x81\xb5\xe6\x81JPy\xf8W>\xdaRQ\xb0'
p370
ssS'_usr_local_lib_python2_7_dist-packages_numpy-1_8_1-py2_7-linux-i686_egg_numpy_lib_arraysetops'
p371
(dp372
g6
(dp373
g8
S'_usr_local_lib_python2_7_dist-packages_numpy-1_8_1-py2_7-linux-i686_egg_numpy_lib_arraysetops.html'
p374
sg10
S'/usr/local/lib/python2.7/dist-packages/numpy-1.8.1-py2.7-linux-i686.egg/numpy/lib/arraysetops'
p375
sg12
g13
(g14
g15
NtRp376
(dp377
g18
I1
sg19
I0
sg20
I98
sg21
I0
sg22
I0
sg23
I87
sg24
I0
sbssg25
S'S\xb4\xb2\x9c\x8f\xb02r7+\x96\xc3_\xa9qQ'
p378
ssS'IPython_utils_sysinfo'
p379
(dp380
g6
(dp381
g8
S'IPython_utils_sysinfo.html'
p382
sg10
S'IPython/utils/sysinfo'
p383
sg12
g13
(g14
g15
NtRp384
(dp385
g18
I1
sg19
I0
sg20
I40
sg21
I0
sg22
I0
sg23
I18
sg24
I0
sbssg25
S'*\xdc\xb1\x1e,\xa9Q"\xa7U\xa7\xc4#\x7f\xe8\xa4'
p386
ssS'IPython_config_application'
p387
(dp388
g6
(dp389
g8
S'IPython_config_application.html'
p390
sg10
S'IPython/config/application'
p391
sg12
g13
(g14
g15
NtRp392
(dp393
g18
I1
sg19
I0
sg20
I300
sg21
I0
sg22
I0
sg23
I126
sg24
I0
sbssg25
S'\x07\xa72d\x8f\xc1\x88F\x15O\xc2\xda\xd2\xc4\x05I'
p394
ssS'_usr_local_lib_python2_7_dist-packages_jinja2__compat'
p395
(dp396
g6
(dp397
g8
S'_usr_local_lib_python2_7_dist-packages_jinja2__compat.html'
p398
sg10
S'/usr/local/lib/python2.7/dist-packages/jinja2/_compat'
p399
sg12
g13
(g14
g15
NtRp400
(dp401
g18
I1
sg19
I0
sg20
I98
sg21
I0
sg22
I0
sg23
I35
sg24
I0
sbssg25
S'@u\t\x99\xbd\xbah\xdc\xa2\x9a\x18b\x12T\x89\x93'
p402
ssS'IPython_core_payload'
p403
(dp404
g6
(dp405
g8
S'IPython_core_payload.html'
p406
sg10
S'IPython/core/payload'
p407
sg12
g13
(g14
g15
NtRp408
(dp409
g18
I1
sg19
I0
sg20
I19
sg21
I0
sg22
I0
sg23
I11
sg24
I0
sbssg25
S'\xb5\xe7\xb0\x96\x84\x17U3\x81\x81\xe9&\xbf~\x17\x8a'
p410
ssS'_usr_share_pyshared_zmq_log_handlers'
p411
(dp412
g6
(dp413
g8
S'_usr_share_pyshared_zmq_log_handlers.html'
p414
sg10
S'/usr/share/pyshared/zmq/log/handlers'
p415
sg12
g13
(g14
g15
NtRp416
(dp417
g18
I1
sg19
I0
sg20
I46
sg21
I0
sg22
I0
sg23
I28
sg24
I0
sbssg25
S'\xe2\x15t)Y\xa7\x02\xf3\x04\xb0\xd0[\xa7L\x00\xe3'
p418
ssS'IPython_kernel_connect'
p419
(dp420
g6
(dp421
g8
S'IPython_kernel_connect.html'
p422
sg10
S'IPython/kernel/connect'
p423
sg12
g13
(g14
g15
NtRp424
(dp425
g18
I1
sg19
I0
sg20
I209
sg21
I0
sg22
I0
sg23
I95
sg24
I0
sbssg25
S'L\x96f\x1c\xa0\n\x8a`"\xa0\x80\xe8\x06f\xaa\x95'
p426
ssS'_usr_local_lib_python2_7_dist-packages_numpy-1_8_1-py2_7-linux-i686_egg_numpy_ma_extras'
p427
(dp428
g6
(dp429
g8
S'_usr_local_lib_python2_7_dist-packages_numpy-1_8_1-py2_7-linux-i686_egg_numpy_ma_extras.html'
p430
sg10
S'/usr/local/lib/python2.7/dist-packages/numpy-1.8.1-py2.7-linux-i686.egg/numpy/ma/extras'
p431
sg12
g13
(g14
g15
NtRp432
(dp433
g18
I1
sg19
I0
sg20
I610
sg21
I0
sg22
I0
sg23
I527
sg24
I0
sbssg25
S'9W\x8d~\xf2J\x9e\xdc\xc7M\xd2\x92<\xb8\xc1i'
p434
ssS'_usr_local_lib_python2_7_dist-packages_numpy-1_8_1-py2_7-linux-i686_egg_numpy_core__methods'
p435
(dp436
g6
(dp437
g8
S'_usr_local_lib_python2_7_dist-packages_numpy-1_8_1-py2_7-linux-i686_egg_numpy_core__methods.html'
p438
sg10
S'/usr/local/lib/python2.7/dist-packages/numpy-1.8.1-py2.7-linux-i686.egg/numpy/core/_methods'
p439
sg12
g13
(g14
g15
NtRp440
(dp441
g18
I1
sg19
I0
sg20
I72
sg21
I0
sg22
I0
sg23
I56
sg24
I0
sbssg25
S'\xc6w\xe0\x89\xf3+\xffA\xef\xe4,\x97\xe3ND\xd2'
p442
ssS'_usr_local_lib_python2_7_dist-packages_numpy-1_8_1-py2_7-linux-i686_egg_numpy_testing_numpytest'
p443
(dp444
g6
(dp445
g8
S'_usr_local_lib_python2_7_dist-packages_numpy-1_8_1-py2_7-linux-i686_egg_numpy_testing_numpytest.html'
p446
sg10
S'/usr/local/lib/python2.7/dist-packages/numpy-1.8.1-py2.7-linux-i686.egg/numpy/testing/numpytest'
p447
sg12
g13
(g14
g15
NtRp448
(dp449
g18
I1
sg19
I0
sg20
I24
sg21
I0
sg22
I0
sg23
I19
sg24
I0
sbssg25
S'\x84\xd9\xaf\xd3\xa8\xe48\xd4\x95=`\xbd\x99\xf6\xb8\x0c'
p450
ssS'IPython_utils_strdispatch'
p451
(dp452
g6
(dp453
g8
S'IPython_utils_strdispatch.html'
p454
sg10
S'IPython/utils/strdispatch'
p455
sg12
g13
(g14
g15
NtRp456
(dp457
g18
I1
sg19
I0
sg20
I33
sg21
I0
sg22
I0
sg23
I23
sg24
I0
sbssg25
S'\x98cS]\x93k\xa4\xcc\xd5\xaa\xb8=Z\x81l\xe6'
p458
ssS'IPython_kernel_comm_manager'
p459
(dp460
g6
(dp461
g8
S'IPython_kernel_comm_manager.html'
p462
sg10
S'IPython/kernel/comm/manager'
p463
sg12
g13
(g14
g15
NtRp464
(dp465
g18
I1
sg19
I0
sg20
I97
sg21
I0
sg22
I0
sg23
I67
sg24
I0
sbssg25
S'\xa6\x0e\x90\xadQ\xa6\x9e\x1e\x1f8M\xee\xcdg+p'
p466
ssS'IPython_utils_tokenize2'
p467
(dp468
g6
(dp469
g8
S'IPython_utils_tokenize2.html'
p470
sg10
S'IPython/utils/tokenize2'
p471
sg12
g13
(g14
g15
NtRp472
(dp473
g18
I1
sg19
I0
sg20
I4
sg21
I0
sg22
I0
sg23
I1
sg24
I0
sbssg25
S'nk*\x84\x0f\xe6\xc4\x0b\x1b\xb4{\xee3\xca\xc6%'
p474
ssS'IPython_core_completer'
p475
(dp476
g6
(dp477
g8
S'IPython_core_completer.html'
p478
sg10
S'IPython/core/completer'
p479
sg12
g13
(g14
g15
NtRp480
(dp481
g18
I1
sg19
I0
sg20
I374
sg21
I0
sg22
I0
sg23
I313
sg24
I0
sbssg25
S'\xc0\x16v\xd9\x9d\x93\r\xaa^.i\xec\x04\x96\xc9x'
p482
ssS'IPython_utils_traitlets'
p483
(dp484
g6
(dp485
g8
S'IPython_utils_traitlets.html'
p486
sg10
S'IPython/utils/traitlets'
p487
sg12
g13
(g14
g15
NtRp488
(dp489
g18
I1
sg19
I0
sg20
I695
sg21
I0
sg22
I0
sg23
I280
sg24
I0
sbssg25
S'\xab\xdd%_Dp\x93\xba7}\xb8\x18coJ\x0c'
p490
ssS'_usr_local_lib_python2_7_dist-packages_numpy-1_8_1-py2_7-linux-i686_egg_numpy_core___init__'
p491
(dp492
g6
(dp493
g8
S'_usr_local_lib_python2_7_dist-packages_numpy-1_8_1-py2_7-linux-i686_egg_numpy_core___init__.html'
p494
sg10
S'/usr/local/lib/python2.7/dist-packages/numpy-1.8.1-py2.7-linux-i686.egg/numpy/core/__init__'
p495
sg12
g13
(g14
g15
NtRp496
(dp497
g18
I1
sg19
I0
sg20
I56
sg21
I0
sg22
I0
sg23
I6
sg24
I0
sbssg25
S'\xae\xb8\xb1\x8f\xe1Q\x0e\x1f)H\xbf\xedn\r\x8b='
p498
ssS'_usr_local_lib_python2_7_dist-packages_numpy-1_8_1-py2_7-linux-i686_egg_numpy_add_newdocs'
p499
(dp500
g6
(dp501
g8
S'_usr_local_lib_python2_7_dist-packages_numpy-1_8_1-py2_7-linux-i686_egg_numpy_add_newdocs.html'
p502
sg10
S'/usr/local/lib/python2.7/dist-packages/numpy-1.8.1-py2.7-linux-i686.egg/numpy/add_newdocs'
p503
sg12
g13
(g14
g15
NtRp504
(dp505
g18
I1
sg19
I0
sg20
I275
sg21
I0
sg22
I0
sg23
I0
sg24
I0
sbssg25
S'\xb8j\x1b\xa1\xbd\x06\xc6\xa9\xbb\x88\t\x90\xe1\x16-\x0c'
p506
ssS'IPython_lib_security'
p507
(dp508
g6
(dp509
g8
S'IPython_lib_security.html'
p510
sg10
S'IPython/lib/security'
p511
sg12
g13
(g14
g15
NtRp512
(dp513
g18
I1
sg19
I0
sg20
I35
sg21
I0
sg22
I0
sg23
I25
sg24
I0
sbssg25
S'\xe8<\xefF\xc3\xdc\x0eP\x92{m\xa4\x9b\xaf\x16M'
p514
ssS'IPython_kernel_zmq_session'
p515
(dp516
g6
(dp517
g8
S'IPython_kernel_zmq_session.html'
p518
sg10
S'IPython/kernel/zmq/session'
p519
sg12
g13
(g14
g15
NtRp520
(dp521
g18
I1
sg19
I0
sg20
I370
sg21
I0
sg22
I0
sg23
I170
sg24
I0
sbssg25
S';\x8b\rr\x00Y\xca\xaewZ\xfa\x04+Mh\xcc'
p522
ssS'IPython_core_magics_deprecated'
p523
(dp524
g6
(dp525
g8
S'IPython_core_magics_deprecated.html'
p526
sg10
S'IPython/core/magics/deprecated'
p527
sg12
g13
(g14
g15
NtRp528
(dp529
g18
I1
sg19
I0
sg20
I10
sg21
I0
sg22
I0
sg23
I2
sg24
I0
sbssg25
S'K\xc3\xc6Y\xd5\x9f \xbf\xee\x08\x05|\x08\xa8%\xe3'
p530
ssS'_usr_local_lib_python2_7_dist-packages_numpy-1_8_1-py2_7-linux-i686_egg_numpy_lib_function_base'
p531
(dp532
g6
(dp533
g8
S'_usr_local_lib_python2_7_dist-packages_numpy-1_8_1-py2_7-linux-i686_egg_numpy_lib_function_base.html'
p534
sg10
S'/usr/local/lib/python2.7/dist-packages/numpy-1.8.1-py2.7-linux-i686.egg/numpy/lib/function_base'
p535
sg12
g13
(g14
g15
NtRp536
(dp537
g18
I1
sg19
I0
sg20
I889
sg21
I0
sg22
I0
sg23
I806
sg24
I0
sbssg25
S'\x89f\xccM\xd01<\xb5\x08\xce\xe2\xffi\xfe\xf0\xc3'
p538
ssS'IPython_html_services_kernels_handlers'
p539
(dp540
g6
(dp541
g8
S'IPython_html_services_kernels_handlers.html'
p542
sg10
S'IPython/html/services/kernels/handlers'
p543
sg12
g13
(g14
g15
NtRp544
(dp545
g18
I1
sg19
I0
sg20
I106
sg21
I0
sg22
I0
sg23
I49
sg24
I0
sbssg25
S'\xc4\x7fx2L\x00\xdd{\x12k\x8e\xcb}.\xf8l'
p546
ssS'IPython_parallel_util'
p547
(dp548
g6
(dp549
g8
S'IPython_parallel_util.html'
p550
sg10
S'IPython/parallel/util'
p551
sg12
g13
(g14
g15
NtRp552
(dp553
g18
I1
sg19
I0
sg20
I228
sg21
I0
sg22
I0
sg23
I173
sg24
I0
sbssg25
S'-$\xdb+\xf1&\x8d=\x1f\xf7\x10.|O\xf1\xc1'
p554
ssS'IPython_utils_frame'
p555
(dp556
g6
(dp557
g8
S'IPython_utils_frame.html'
p558
sg10
S'IPython/utils/frame'
p559
sg12
g13
(g14
g15
NtRp560
(dp561
g18
I1
sg19
I0
sg20
I19
sg21
I0
sg22
I0
sg23
I11
sg24
I0
sbssg25
S'\xb3\xb3\\{4\xeer|\xeeN\xf7\xee\x99\xf5\xfcO'
p562
ssS'IPython_parallel_client_map'
p563
(dp564
g6
(dp565
g8
S'IPython_parallel_client_map.html'
p566
sg10
S'IPython/parallel/client/map'
p567
sg12
g13
(g14
g15
NtRp568
(dp569
g18
I1
sg19
I0
sg20
I82
sg21
I0
sg22
I0
sg23
I55
sg24
I0
sbssg25
S'v\x96\xfb<ZJ0\x95\x154j\xc0\x19^\xa5\xc9'
p570
ssS'_usr_local_lib_python2_7_dist-packages_numpy-1_8_1-py2_7-linux-i686_egg_numpy_matrixlib_defmatrix'
p571
(dp572
g6
(dp573
g8
S'_usr_local_lib_python2_7_dist-packages_numpy-1_8_1-py2_7-linux-i686_egg_numpy_matrixlib_defmatrix.html'
p574
sg10
S'/usr/local/lib/python2.7/dist-packages/numpy-1.8.1-py2.7-linux-i686.egg/numpy/matrixlib/defmatrix'
p575
sg12
g13
(g14
g15
NtRp576
(dp577
g18
I1
sg19
I0
sg20
I286
sg21
I0
sg22
I0
sg23
I223
sg24
I0
sbssg25
S'I\x01o_,e\\}\xca0\xf0\xd5)\x95\xb0k'
p578
ssS'_usr_local_lib_python2_7_dist-packages_tornado-3_2-py2_7-linux-i686_egg_tornado_escape'
p579
(dp580
g6
(dp581
g8
S'_usr_local_lib_python2_7_dist-packages_tornado-3_2-py2_7-linux-i686_egg_tornado_escape.html'
p582
sg10
S'/usr/local/lib/python2.7/dist-packages/tornado-3.2-py2.7-linux-i686.egg/tornado/escape'
p583
sg12
g13
(g14
g15
NtRp584
(dp585
g18
I1
sg19
I0
sg20
I147
sg21
I0
sg22
I0
sg23
I89
sg24
I0
sbssg25
S'ad\x1d)tl\xfc\xd7y\xf1\xae\xb9|V+\x01'
p586
ssS'IPython_external_ssh_tunnel'
p587
(dp588
g6
(dp589
g8
S'IPython_external_ssh_tunnel.html'
p590
sg10
S'IPython/external/ssh/tunnel'
p591
sg12
g13
(g14
g15
NtRp592
(dp593
g18
I1
sg19
I0
sg20
I168
sg21
I0
sg22
I0
sg23
I138
sg24
I0
sbssg25
S'\xacyi\x89QA\x92\xbf\x12\xee\x85`M-\xd6 '
p594
ssS'_usr_local_lib_python2_7_dist-packages_tornado-3_2-py2_7-linux-i686_egg_tornado_concurrent'
p595
(dp596
g6
(dp597
g8
S'_usr_local_lib_python2_7_dist-packages_tornado-3_2-py2_7-linux-i686_egg_tornado_concurrent.html'
p598
sg10
S'/usr/local/lib/python2.7/dist-packages/tornado-3.2-py2.7-linux-i686.egg/tornado/concurrent'
p599
sg12
g13
(g14
g15
NtRp600
(dp601
g18
I1
sg19
I0
sg20
I127
sg21
I0
sg22
I0
sg23
I85
sg24
I0
sbssg25
S'2%\x86\xab\xcbR~\xb0\xc99\x80\xab\xa4\xb0\x1a\x91'
p602
ssS'_usr_local_lib_python2_7_dist-packages_numpy-1_8_1-py2_7-linux-i686_egg_numpy_polynomial_chebyshev'
p603
(dp604
g6
(dp605
g8
S'_usr_local_lib_python2_7_dist-packages_numpy-1_8_1-py2_7-linux-i686_egg_numpy_polynomial_chebyshev.html'
p606
sg10
S'/usr/local/lib/python2.7/dist-packages/numpy-1.8.1-py2.7-linux-i686.egg/numpy/polynomial/chebyshev'
p607
sg12
g13
(g14
g15
NtRp608
(dp609
g18
I1
sg19
I0
sg20
I432
sg21
I0
sg22
I0
sg23
I386
sg24
I0
sbssg25
S'\xf39\xf0\x9d\xe9\x97\x0b\xbc\xd9@\xdf\x97\xe5,?p'
p610
ssS'_usr_local_lib_python2_7_dist-packages_numpy-1_8_1-py2_7-linux-i686_egg_numpy_testing_utils'
p611
(dp612
g6
(dp613
g8
S'_usr_local_lib_python2_7_dist-packages_numpy-1_8_1-py2_7-linux-i686_egg_numpy_testing_utils.html'
p614
sg10
S'/usr/local/lib/python2.7/dist-packages/numpy-1.8.1-py2.7-linux-i686.egg/numpy/testing/utils'
p615
sg12
g13
(g14
g15
NtRp616
(dp617
g18
I1
sg19
I0
sg20
I562
sg21
I0
sg22
I0
sg23
I506
sg24
I0
sbssg25
S'g\xcd\x9b(\xf6@C"\xe0\x8a\xbe5j(~E'
p618
ssS'IPython_nbformat_v1_rwbase'
p619
(dp620
g6
(dp621
g8
S'IPython_nbformat_v1_rwbase.html'
p622
sg10
S'IPython/nbformat/v1/rwbase'
p623
sg12
g13
(g14
g15
NtRp624
(dp625
g18
I1
sg19
I0
sg20
I11
sg21
I0
sg22
I0
sg23
I4
sg24
I0
sbssg25
S'\xb4\xfa<\x81\xe5\xb4o z\xf4\xefw\xca\xb9\x17\x9b'
p626
ssS'_usr_local_lib_python2_7_dist-packages_numpy-1_8_1-py2_7-linux-i686_egg_numpy_lib_utils'
p627
(dp628
g6
(dp629
g8
S'_usr_local_lib_python2_7_dist-packages_numpy-1_8_1-py2_7-linux-i686_egg_numpy_lib_utils.html'
p630
sg10
S'/usr/local/lib/python2.7/dist-packages/numpy-1.8.1-py2.7-linux-i686.egg/numpy/lib/utils'
p631
sg12
g13
(g14
g15
NtRp632
(dp633
g18
I1
sg19
I0
sg20
I517
sg21
I0
sg22
I0
sg23
I442
sg24
I0
sbssg25
S'\x90#\xc6\xe2\xa3\xe2I\xc0\x0c\xf6\xc7#\x86tl\x07'
p634
ssS'IPython_core_splitinput'
p635
(dp636
g6
(dp637
g8
S'IPython_core_splitinput.html'
p638
sg10
S'IPython/core/splitinput'
p639
sg12
g13
(g14
g15
NtRp640
(dp641
g18
I1
sg19
I0
sg20
I34
sg21
I0
sg22
I0
sg23
I23
sg24
I0
sbssg25
S',\x90\x13\xbdB\xa8\x1bD\x13B\xa62\xfd\xbc\xbd\xa0'
p642
ssS'IPython_html_services_kernels_kernelmanager'
p643
(dp644
g6
(dp645
g8
S'IPython_html_services_kernels_kernelmanager.html'
p646
sg10
S'IPython/html/services/kernels/kernelmanager'
p647
sg12
g13
(g14
g15
NtRp648
(dp649
g18
I1
sg19
I0
sg20
I37
sg21
I0
sg22
I0
sg23
I14
sg24
I0
sbssg25
S'\x96\xf6YU\x92\xcb{3\x0f\xac\x941\x1b0\xbe\x14'
p650
ssS'_usr_local_lib_python2_7_dist-packages_tornado-3_2-py2_7-linux-i686_egg_tornado_platform_auto'
p651
(dp652
g6
(dp653
g8
S'_usr_local_lib_python2_7_dist-packages_tornado-3_2-py2_7-linux-i686_egg_tornado_platform_auto.html'
p654
sg10
S'/usr/local/lib/python2.7/dist-packages/tornado-3.2-py2.7-linux-i686.egg/tornado/platform/auto'
p655
sg12
g13
(g14
g15
NtRp656
(dp657
g18
I1
sg19
I0
sg20
I15
sg21
I0
sg22
I0
sg23
I2
sg24
I0
sbssg25
S'\nrAe\x83\xbe\x87K\xe3//\xfdv(\x0e\xc3'
p658
ssS'IPython_kernel_manager'
p659
(dp660
g6
(dp661
g8
S'IPython_kernel_manager.html'
p662
sg10
S'IPython/kernel/manager'
p663
sg12
g13
(g14
g15
NtRp664
(dp665
g18
I1
sg19
I0
sg20
I150
sg21
I0
sg22
I0
sg23
I55
sg24
I0
sbssg25
S'0r4\x99(\x17,\xddC\xf8\xe8\x18\xb9\xb2a\xf1'
p666
ssS'IPython_kernel_comm___init__'
p667
(dp668
g6
(dp669
g8
S'IPython_kernel_comm___init__.html'
p670
sg10
S'IPython/kernel/comm/__init__'
p671
sg12
g13
(g14
g15
NtRp672
(dp673
g18
I1
sg19
I0
sg20
I2
sg21
I0
sg22
I0
sg23
I0
sg24
I0
sbssg25
S'P\x9d)p\x1d\xfc\x96\xf0c38ri\xd1\x1ac'
p674
ssS'_usr_local_lib_python2_7_dist-packages_jinja2_nodes'
p675
(dp676
g6
(dp677
g8
S'_usr_local_lib_python2_7_dist-packages_jinja2_nodes.html'
p678
sg10
S'/usr/local/lib/python2.7/dist-packages/jinja2/nodes'
p679
sg12
g13
(g14
g15
NtRp680
(dp681
g18
I1
sg19
I0
sg20
I423
sg21
I0
sg22
I0
sg23
I143
sg24
I0
sbssg25
S'\t:\x83\x7f\x84EXl\x1b4\xbc\x00L\xe3^\x8a'
p682
ssS'_usr_local_lib_python2_7_dist-packages_numpy-1_8_1-py2_7-linux-i686_egg_numpy_core_shape_base'
p683
(dp684
g6
(dp685
g8
S'_usr_local_lib_python2_7_dist-packages_numpy-1_8_1-py2_7-linux-i686_egg_numpy_core_shape_base.html'
p686
sg10
S'/usr/local/lib/python2.7/dist-packages/numpy-1.8.1-py2.7-linux-i686.egg/numpy/core/shape_base'
p687
sg12
g13
(g14
g15
NtRp688
(dp689
g18
I1
sg19
I0
sg20
I50
sg21
I0
sg22
I0
sg23
I41
sg24
I0
sbssg25
S'\xdd\x16n\x83\x83&\xdb\x81\x96\xa0\xab|S\xeb\x7f\x83'
p690
ssS'IPython_utils_jsonutil'
p691
(dp692
g6
(dp693
g8
S'IPython_utils_jsonutil.html'
p694
sg10
S'IPython/utils/jsonutil'
p695
sg12
g13
(g14
g15
NtRp696
(dp697
g18
I1
sg19
I0
sg20
I111
sg21
I0
sg22
I0
sg23
I69
sg24
I0
sbssg25
S'\x11\xb2\xbc\xbe\xb1\xa9R\xa5p\x08_\x883]\xb2\x9d'
p698
ssS'IPython_utils_openpy'
p699
(dp700
g6
(dp701
g8
S'IPython_utils_openpy.html'
p702
sg10
S'IPython/utils/openpy'
p703
sg12
g13
(g14
g15
NtRp704
(dp705
g18
I1
sg19
I0
sg20
I133
sg21
I0
sg22
I0
sg23
I105
sg24
I0
sbssg25
S'>(!2\xd4\xc0\xf0\xc9\xaa\xa8\xf6\x0c\x90\xaa[\x9d'
p706
ssS'IPython_nbformat_v2_nbxml'
p707
(dp708
g6
(dp709
g8
S'IPython_nbformat_v2_nbxml.html'
p710
sg10
S'IPython/nbformat/v2/nbxml'
p711
sg12
g13
(g14
g15
NtRp712
(dp713
g18
I1
sg19
I0
sg20
I121
sg21
I0
sg22
I0
sg23
I99
sg24
I0
sbssg25
S't8iC\xcf\x12\x1a\xa6\x96\x84V\x00\xdf\x9a\xbb\x1e'
p714
ssS'IPython_kernel_zmq_zmqshell'
p715
(dp716
g6
(dp717
g8
S'IPython_kernel_zmq_zmqshell.html'
p718
sg10
S'IPython/kernel/zmq/zmqshell'
p719
sg12
g13
(g14
g15
NtRp720
(dp721
g18
I1
sg19
I0
sg20
I228
sg21
I0
sg22
I0
sg23
I149
sg24
I0
sbssg25
S'\xefH\x7f\xe8\xdf\xe6\x91\xe4!H\x90a?J\xb3B'
p722
ssS'IPython___main__'
p723
(dp724
g6
(dp725
g8
S'IPython___main__.html'
p726
sg10
S'IPython/__main__'
p727
sg12
g13
(g14
g15
NtRp728
(dp729
g18
I1
sg19
I0
sg20
I3
sg21
I0
sg22
I0
sg23
I0
sg24
I0
sbssg25
S'\x9b\x95\xe6\xb21\x06D\xe2\xc1\xb0\xd5\x99\xba5\x98j'
p730
ssS'IPython_lib___init__'
p731
(dp732
g6
(dp733
g8
S'IPython_lib___init__.html'
p734
sg10
S'IPython/lib/__init__'
p735
sg12
g13
(g14
g15
NtRp736
(dp737
g18
I1
sg19
I0
sg20
I2
sg21
I0
sg22
I0
sg23
I0
sg24
I0
sbssg25
S'\xee\x8c\xa3\xf0V\xdcE\xce\x1cL\xcbc~l\x873'
p738
ssS'_usr_local_lib_python2_7_dist-packages_numpy-1_8_1-py2_7-linux-i686_egg_numpy_core_numerictypes'
p739
(dp740
g6
(dp741
g8
S'_usr_local_lib_python2_7_dist-packages_numpy-1_8_1-py2_7-linux-i686_egg_numpy_core_numerictypes.html'
p742
sg10
S'/usr/local/lib/python2.7/dist-packages/numpy-1.8.1-py2.7-linux-i686.egg/numpy/core/numerictypes'
p743
sg12
g13
(g14
g15
NtRp744
(dp745
g18
I1
sg19
I0
sg20
I381
sg21
I0
sg22
I0
sg23
I115
sg24
I0
sbssg25
S'\x0e2\x07\xfa.\x12\xf7H\xd0\xban;\x16\xb3vJ'
p746
ssS'IPython_nbformat_v2_rwbase'
p747
(dp748
g6
(dp749
g8
S'IPython_nbformat_v2_rwbase.html'
p750
sg10
S'IPython/nbformat/v2/rwbase'
p751
sg12
g13
(g14
g15
NtRp752
(dp753
g18
I1
sg19
I0
sg20
I80
sg21
I0
sg22
I0
sg23
I65
sg24
I0
sbssg25
S'\xeer\xac\xc3\xac\x9f\xe3&l$\xa9\xcf\xad\x01P/'
p754
ssS'IPython_core_crashhandler'
p755
(dp756
g6
(dp757
g8
S'IPython_core_crashhandler.html'
p758
sg10
S'IPython/core/crashhandler'
p759
sg12
g13
(g14
g15
NtRp760
(dp761
g18
I1
sg19
I0
sg20
I72
sg21
I0
sg22
I0
sg23
I48
sg24
I0
sbssg25
S'\x8f6\xa7\xca\x82L\xd0D\xf0\xa3\xc9\xad\x91\r\x15"'
p762
ssS'IPython_testing_skipdoctest'
p763
(dp764
g6
(dp765
g8
S'IPython_testing_skipdoctest.html'
p766
sg10
S'IPython/testing/skipdoctest'
p767
sg12
g13
(g14
g15
NtRp768
(dp769
g18
I1
sg19
I0
sg20
I7
sg21
I0
sg22
I0
sg23
I0
sg24
I0
sbssg25
S'\x89\xa6\xec1\x03\xb8\x87\x84\x15ytf\x8b\xc1\xd7`'
p770
ssS'IPython_core_ultratb'
p771
(dp772
g6
(dp773
g8
S'IPython_core_ultratb.html'
p774
sg10
S'IPython/core/ultratb'
p775
sg12
g13
(g14
g15
NtRp776
(dp777
g18
I1
sg19
I0
sg20
I587
sg21
I0
sg22
I0
sg23
I502
sg24
I0
sbssg25
S'\xf9\x0f-r\xcb\xe4w\xe6\x99t\x82\xe9\x1cps\xe3'
p778
ssS'IPython_kernel_inprocess_blocking'
p779
(dp780
g6
(dp781
g8
S'IPython_kernel_inprocess_blocking.html'
p782
sg10
S'IPython/kernel/inprocess/blocking'
p783
sg12
g13
(g14
g15
NtRp784
(dp785
g18
I1
sg19
I0
sg20
I21
sg21
I0
sg22
I0
sg23
I6
sg24
I0
sbssg25
S':g\xbc\xf4\xd64\xf6\xe1i\xfby\xeeR{\xbc8'
p786
ssS'_usr_local_lib_python2_7_dist-packages_numpy-1_8_1-py2_7-linux-i686_egg_numpy_testing_decorators'
p787
(dp788
g6
(dp789
g8
S'_usr_local_lib_python2_7_dist-packages_numpy-1_8_1-py2_7-linux-i686_egg_numpy_testing_decorators.html'
p790
sg10
S'/usr/local/lib/python2.7/dist-packages/numpy-1.8.1-py2.7-linux-i686.egg/numpy/testing/decorators'
p791
sg12
g13
(g14
g15
NtRp792
(dp793
g18
I1
sg19
I0
sg20
I70
sg21
I0
sg22
I0
sg23
I62
sg24
I0
sbssg25
S'\xe1&\xddU\xfd\xf0\x90\xf7\xbc\xdb\xbf\xbc\xf67:\xde'
p794
ssS'IPython_parallel_controller___init__'
p795
(dp796
g6
(dp797
g8
S'IPython_parallel_controller___init__.html'
p798
sg10
S'IPython/parallel/controller/__init__'
p799
sg12
g13
(g14
g15
NtRp800
(dp801
g18
I1
sg19
I0
sg20
I0
sg21
I0
sg22
I0
sg23
I0
sg24
I0
sbssg25
S'\xca\xf5\x9f\x7f\x88\xdfa\x831|T\x1d\xbc}\xa5v'
p802
ssS'_usr_local_lib_python2_7_dist-packages_tornado-3_2-py2_7-linux-i686_egg_tornado_httpserver'
p803
(dp804
g6
(dp805
g8
S'_usr_local_lib_python2_7_dist-packages_tornado-3_2-py2_7-linux-i686_egg_tornado_httpserver.html'
p806
sg10
S'/usr/local/lib/python2.7/dist-packages/tornado-3.2-py2.7-linux-i686.egg/tornado/httpserver'
p807
sg12
g13
(g14
g15
NtRp808
(dp809
g18
I1
sg19
I0
sg20
I199
sg21
I0
sg22
I0
sg23
I54
sg24
I0
sbssg25
S'\xc2\xa0$\xbe\xd0\x08\xed\x8a\x908\xff\x18)j\x0eN'
p810
ssS'_usr_local_lib_python2_7_dist-packages_numpy-1_8_1-py2_7-linux-i686_egg_numpy_lib_nanfunctions'
p811
(dp812
g6
(dp813
g8
S'_usr_local_lib_python2_7_dist-packages_numpy-1_8_1-py2_7-linux-i686_egg_numpy_lib_nanfunctions.html'
p814
sg10
S'/usr/local/lib/python2.7/dist-packages/numpy-1.8.1-py2.7-linux-i686.egg/numpy/lib/nanfunctions'
p815
sg12
g13
(g14
g15
NtRp816
(dp817
g18
I1
sg19
I0
sg20
I138
sg21
I0
sg22
I0
sg23
I123
sg24
I0
sbssg25
S"\xf4\xcc\x9f\xbcp}'\x13Jq+sG\x150E"
p818
ssS'_usr_share_pyshared_zmq_eventloop_zmqstream'
p819
(dp820
g6
(dp821
g8
S'_usr_share_pyshared_zmq_eventloop_zmqstream.html'
p822
sg10
S'/usr/share/pyshared/zmq/eventloop/zmqstream'
p823
sg12
g13
(g14
g15
NtRp824
(dp825
g18
I1
sg19
I0
sg20
I224
sg21
I0
sg22
I0
sg23
I100
sg24
I0
sbssg25
S'\xd4\xff\x13\xee\xd4>\x03\x95q\x1bb\x9f\xb5\x82\x849'
p826
ssS'_usr_local_lib_python2_7_dist-packages_tornado-3_2-py2_7-linux-i686_egg_tornado_iostream'
p827
(dp828
g6
(dp829
g8
S'_usr_local_lib_python2_7_dist-packages_tornado-3_2-py2_7-linux-i686_egg_tornado_iostream.html'
p830
sg10
S'/usr/local/lib/python2.7/dist-packages/tornado-3.2-py2.7-linux-i686.egg/tornado/iostream'
p831
sg12
g13
(g14
g15
NtRp832
(dp833
g18
I1
sg19
I0
sg20
I537
sg21
I0
sg22
I0
sg23
I240
sg24
I0
sbssg25
S'{\t\x1e\x1bi\x96]\xa1\x14\xd7<\x14\x1e\xb3\xc3z'
p834
ssS'IPython_core_magics_logging'
p835
(dp836
g6
(dp837
g8
S'IPython_core_magics_logging.html'
p838
sg10
S'IPython/core/magics/logging'
p839
sg12
g13
(g14
g15
NtRp840
(dp841
g18
I1
sg19
I0
sg20
I62
sg21
I0
sg22
I0
sg23
I45
sg24
I0
sbssg25
S'\x9a\x01\x05\xe8\xbcxjO\x99\xbcN\x06.\xe6\x85\x15'
p842
ssS'IPython_core_excolors'
p843
(dp844
g6
(dp845
g8
S'IPython_core_excolors.html'
p846
sg10
S'IPython/core/excolors'
p847
sg12
g13
(g14
g15
NtRp848
(dp849
g18
I1
sg19
I0
sg20
I10
sg21
I0
sg22
I0
sg23
I0
sg24
I0
sbssg25
S'\xd65\x86;+\xda\xb4\x10BgEL\x9fw\x94\x86'
p850
ssS'IPython_utils_encoding'
p851
(dp852
g6
(dp853
g8
S'IPython_utils_encoding.html'
p854
sg10
S'IPython/utils/encoding'
p855
sg12
g13
(g14
g15
NtRp856
(dp857
g18
I1
sg19
I0
sg20
I23
sg21
I0
sg22
I0
sg23
I5
sg24
I0
sbssg25
S'R\nu\t\x85j\t\r\xcaW\xe8$\xbfC\x95a'
p858
ssS'IPython_parallel_apps___init__'
p859
(dp860
g6
(dp861
g8
S'IPython_parallel_apps___init__.html'
p862
sg10
S'IPython/parallel/apps/__init__'
p863
sg12
g13
(g14
g15
NtRp864
(dp865
g18
I1
sg19
I0
sg20
I0
sg21
I0
sg22
I0
sg23
I0
sg24
I0
sbssg25
S'\xca\xf5\x9f\x7f\x88\xdfa\x831|T\x1d\xbc}\xa5v'
p866
ssS'IPython_core_magic_arguments'
p867
(dp868
g6
(dp869
g8
S'IPython_core_magic_arguments.html'
p870
sg10
S'IPython/core/magic_arguments'
p871
sg12
g13
(g14
g15
NtRp872
(dp873
g18
I1
sg19
I0
sg20
I102
sg21
I0
sg22
I0
sg23
I16
sg24
I0
sbssg25
S'\xa9C;&b\xb6\x98\xa5O\x87\x0f\x8cC\x8bx>'
p874
ssS'IPython_core_debugger'
p875
(dp876
g6
(dp877
g8
S'IPython_core_debugger.html'
p878
sg10
S'IPython/core/debugger'
p879
sg12
g13
(g14
g15
NtRp880
(dp881
g18
I1
sg19
I0
sg20
I302
sg21
I0
sg22
I0
sg23
I247
sg24
I0
sbssg25
S'\x0b\xd7\x19A\xfc\xd5\xf0\xcb\x0bpHu\x91\x95\rv'
p882
ssS'_usr_local_lib_python2_7_dist-packages_tornado-3_2-py2_7-linux-i686_egg_tornado_platform_interface'
p883
(dp884
g6
(dp885
g8
S'_usr_local_lib_python2_7_dist-packages_tornado-3_2-py2_7-linux-i686_egg_tornado_platform_interface.html'
p886
sg10
S'/usr/local/lib/python2.7/dist-packages/tornado-3.2-py2.7-linux-i686.egg/tornado/platform/interface'
p887
sg12
g13
(g14
g15
NtRp888
(dp889
g18
I1
sg19
I0
sg20
I15
sg21
I0
sg22
I0
sg23
I6
sg24
I0
sbssg25
S'\xa9\xd8\x86;M\xee\xa7\xa6|\xcb3V\x98\x05b\xf1'
p890
ssS'_usr_local_lib_python2_7_dist-packages_numpy-1_8_1-py2_7-linux-i686_egg_numpy_fft_info'
p891
(dp892
g6
(dp893
g8
S'_usr_local_lib_python2_7_dist-packages_numpy-1_8_1-py2_7-linux-i686_egg_numpy_fft_info.html'
p894
sg10
S'/usr/local/lib/python2.7/dist-packages/numpy-1.8.1-py2.7-linux-i686.egg/numpy/fft/info'
p895
sg12
g13
(g14
g15
NtRp896
(dp897
g18
I1
sg19
I0
sg20
I2
sg21
I0
sg22
I0
sg23
I0
sg24
I0
sbssg25
S't\xdbU~X-=\xe7\x07\xe6:f\xa0\xfe/\xe7'
p898
ssS'_usr_local_lib_python2_7_dist-packages_tornado-3_2-py2_7-linux-i686_egg_tornado_httputil'
p899
(dp900
g6
(dp901
g8
S'_usr_local_lib_python2_7_dist-packages_tornado-3_2-py2_7-linux-i686_egg_tornado_httputil.html'
p902
sg10
S'/usr/local/lib/python2.7/dist-packages/tornado-3.2-py2.7-linux-i686.egg/tornado/httputil'
p903
sg12
g13
(g14
g15
NtRp904
(dp905
g18
I1
sg19
I0
sg20
I210
sg21
I0
sg22
I0
sg23
I112
sg24
I0
sbssg25
S'!B\x91\xfe\x06z\xb7rZ\xf7[T\xe9z\x80S'
p906
ssS'IPython_core_magics_history'
p907
(dp908
g6
(dp909
g8
S'IPython_core_magics_history.html'
p910
sg10
S'IPython/core/magics/history'
p911
sg12
g13
(g14
g15
NtRp912
(dp913
g18
I1
sg19
I0
sg20
I127
sg21
I0
sg22
I0
sg23
I100
sg24
I0
sbssg25
S"\x9e\xc8\x0bx\xdfA\xe9\xdf\x8c\xe2\xe4\xb8\xac\x04')"
p914
ssS'_usr_local_lib_python2_7_dist-packages_numpy-1_8_1-py2_7-linux-i686_egg_numpy_linalg_info'
p915
(dp916
g6
(dp917
g8
S'_usr_local_lib_python2_7_dist-packages_numpy-1_8_1-py2_7-linux-i686_egg_numpy_linalg_info.html'
p918
sg10
S'/usr/local/lib/python2.7/dist-packages/numpy-1.8.1-py2.7-linux-i686.egg/numpy/linalg/info'
p919
sg12
g13
(g14
g15
NtRp920
(dp921
g18
I1
sg19
I0
sg20
I2
sg21
I0
sg22
I0
sg23
I0
sg24
I0
sbssg25
S"\xaf\xc5'e\x12\xe3\xb15\xa1\xf0]*we\xdc5"
p922
ssS'_usr_local_lib_python2_7_dist-packages_numpy-1_8_1-py2_7-linux-i686_egg_numpy_ma___init__'
p923
(dp924
g6
(dp925
g8
S'_usr_local_lib_python2_7_dist-packages_numpy-1_8_1-py2_7-linux-i686_egg_numpy_ma___init__.html'
p926
sg10
S'/usr/local/lib/python2.7/dist-packages/numpy-1.8.1-py2.7-linux-i686.egg/numpy/ma/__init__'
p927
sg12
g13
(g14
g15
NtRp928
(dp929
g18
I1
sg19
I0
sg20
I15
sg21
I0
sg22
I0
sg23
I0
sg24
I0
sbssg25
S"R\xdc$PQ\xdc\xea\xa4J\xba\xb1\xb4'\xbenS"
p930
ssS'_usr_local_lib_python2_7_dist-packages_numpy-1_8_1-py2_7-linux-i686_egg_numpy_random_info'
p931
(dp932
g6
(dp933
g8
S'_usr_local_lib_python2_7_dist-packages_numpy-1_8_1-py2_7-linux-i686_egg_numpy_random_info.html'
p934
sg10
S'/usr/local/lib/python2.7/dist-packages/numpy-1.8.1-py2.7-linux-i686.egg/numpy/random/info'
p935
sg12
g13
(g14
g15
NtRp936
(dp937
g18
I1
sg19
I0
sg20
I3
sg21
I0
sg22
I0
sg23
I0
sg24
I0
sbssg25
S':$\xabS\x86\xec\x80\x16\xcf\xe2]\x99\x84CP\x96'
p938
ssS'IPython_terminal_interactiveshell'
p939
(dp940
g6
(dp941
g8
S'IPython_terminal_interactiveshell.html'
p942
sg10
S'IPython/terminal/interactiveshell'
p943
sg12
g13
(g14
g15
NtRp944
(dp945
g18
I1
sg19
I0
sg20
I340
sg21
I0
sg22
I0
sg23
I260
sg24
I0
sbssg25
S'\x0b\x8f\xad\xc4-\x9cd\x9e\xb5|\xe5\xc6\x01\xc6\x05^'
p946
ssS'IPython_html_services_clusters_handlers'
p947
(dp948
g6
(dp949
g8
S'IPython_html_services_clusters_handlers.html'
p950
sg10
S'IPython/html/services/clusters/handlers'
p951
sg12
g13
(g14
g15
NtRp952
(dp953
g18
I1
sg19
I0
sg20
I23
sg21
I0
sg22
I0
sg23
I10
sg24
I0
sbssg25
S"\x91\x02Bh\xad[\xf3\x13RL\xa1Y'\xfe/\x92"
p954
ssS'IPython_core_history'
p955
(dp956
g6
(dp957
g8
S'IPython_core_history.html'
p958
sg10
S'IPython/core/history'
p959
sg12
g13
(g14
g15
NtRp960
(dp961
g18
I1
sg19
I0
sg20
I339
sg21
I0
sg22
I0
sg23
I249
sg24
I0
sbssg25
S'\x0f\x86\xa9\xdf\xb9\xaa7]\x00\xdbMgL\xddi\xdf'
p962
ssS'IPython_nbformat_convert'
p963
(dp964
g6
(dp965
g8
S'IPython_nbformat_convert.html'
p966
sg10
S'IPython/nbformat/convert'
p967
sg12
g13
(g14
g15
NtRp968
(dp969
g18
I1
sg19
I0
sg20
I17
sg21
I0
sg22
I0
sg23
I11
sg24
I0
sbssg25
S'\x86\xfd\x7f!\x86\xd6\x84\xebp\x07\xcd+{\x1f\xa2\x8e'
p970
ssS'IPython_kernel_zmq_pylab___init__'
p971
(dp972
g6
(dp973
g8
S'IPython_kernel_zmq_pylab___init__.html'
p974
sg10
S'IPython/kernel/zmq/pylab/__init__'
p975
sg12
g13
(g14
g15
NtRp976
(dp977
g18
I1
sg19
I0
sg20
I0
sg21
I0
sg22
I0
sg23
I0
sg24
I0
sbssg25
S'\xca\xf5\x9f\x7f\x88\xdfa\x831|T\x1d\xbc}\xa5v'
p978
ssS'_usr_local_lib_python2_7_dist-packages_jinja2_filters'
p979
(dp980
g6
(dp981
g8
S'_usr_local_lib_python2_7_dist-packages_jinja2_filters.html'
p982
sg10
S'/usr/local/lib/python2.7/dist-packages/jinja2/filters'
p983
sg12
g13
(g14
g15
NtRp984
(dp985
g18
I1
sg19
I0
sg20
I343
sg21
I0
sg22
I0
sg23
I265
sg24
I0
sbssg25
S'\xef#\xc6\xad\x92\x96v^M\x9d\xf0\xfeR\xcal\xc5'
p986
ssS'_usr_local_lib_python2_7_dist-packages_jinja2_compiler'
p987
(dp988
g6
(dp989
g8
S'_usr_local_lib_python2_7_dist-packages_jinja2_compiler.html'
p990
sg10
S'/usr/local/lib/python2.7/dist-packages/jinja2/compiler'
p991
sg12
g13
(g14
g15
NtRp992
(dp993
g18
I1
sg19
I0
sg20
I1030
sg21
I0
sg22
I0
sg23
I485
sg24
I0
sbssg25
S'\x8fw\xb1\x8c\xda+\x13\xdc\xbb\x0f\x14\xc2\xf6\x1d\xd1\xe4'
p994
ssS'_usr_local_lib_python2_7_dist-packages_numpy-1_8_1-py2_7-linux-i686_egg_numpy_lib__datasource'
p995
(dp996
g6
(dp997
g8
S'_usr_local_lib_python2_7_dist-packages_numpy-1_8_1-py2_7-linux-i686_egg_numpy_lib__datasource.html'
p998
sg10
S'/usr/local/lib/python2.7/dist-packages/numpy-1.8.1-py2.7-linux-i686.egg/numpy/lib/_datasource'
p999
sg12
g13
(g14
g15
NtRp1000
(dp1001
g18
I1
sg19
I0
sg20
I178
sg21
I0
sg22
I0
sg23
I140
sg24
I0
sbssg25
S'\xe19m\xe9\xb3\xae\xcc\xc7\xb2\xe4\x9bL,\x9e\x8d\xdd'
p1002
ssS'_usr_local_lib_python2_7_dist-packages_tornado-3_2-py2_7-linux-i686_egg_tornado_process'
p1003
(dp1004
g6
(dp1005
g8
S'_usr_local_lib_python2_7_dist-packages_tornado-3_2-py2_7-linux-i686_egg_tornado_process.html'
p1006
sg10
S'/usr/local/lib/python2.7/dist-packages/tornado-3.2-py2.7-linux-i686.egg/tornado/process'
p1007
sg12
g13
(g14
g15
NtRp1008
(dp1009
g18
I1
sg19
I0
sg20
I171
sg21
I0
sg22
I0
sg23
I136
sg24
I0
sbssg25
S'I\xdaB\x834&\x05\x93fH\xc6\xe4\n[\xfc\r'
p1010
ssS'IPython_core_getipython'
p1011
(dp1012
g6
(dp1013
g8
S'IPython_core_getipython.html'
p1014
sg10
S'IPython/core/getipython'
p1015
sg12
g13
(g14
g15
NtRp1016
(dp1017
g18
I1
sg19
I0
sg20
I5
sg21
I0
sg22
I0
sg23
I3
sg24
I0
sbssg25
S"s'\xa0\xc1\xed\xb6\xa6W\x91Z>\x84\x14\x83\xcb("
p1018
ssS'IPython_kernel_ioloop_manager'
p1019
(dp1020
g6
(dp1021
g8
S'IPython_kernel_ioloop_manager.html'
p1022
sg10
S'IPython/kernel/ioloop/manager'
p1023
sg12
g13
(g14
g15
NtRp1024
(dp1025
g18
I1
sg19
I0
sg20
I29
sg21
I0
sg22
I0
sg23
I0
sg24
I0
sbssg25
S'&\x9f\xb7\xb6\xdc\xae\xd9\xb3e\xbe;\x83rn\x89k'
p1026
ssS'_usr_local_lib_python2_7_dist-packages_jinja2_runtime'
p1027
(dp1028
g6
(dp1029
g8
S'_usr_local_lib_python2_7_dist-packages_jinja2_runtime.html'
p1030
sg10
S'/usr/local/lib/python2.7/dist-packages/jinja2/runtime'
p1031
sg12
g13
(g14
g15
NtRp1032
(dp1033
g18
I1
sg19
I0
sg20
I291
sg21
I0
sg22
I0
sg23
I133
sg24
I0
sbssg25
S'(\x97\xf7\xaa\xd0\x1d\xe0\xa3\xc6X9\xb8$\x97\xc6{'
p1034
ssS'IPython_core_magic'
p1035
(dp1036
g6
(dp1037
g8
S'IPython_core_magic.html'
p1038
sg10
S'IPython/core/magic'
p1039
sg12
g13
(g14
g15
NtRp1040
(dp1041
g18
I1
sg19
I0
sg20
I254
sg21
I0
sg22
I0
sg23
I153
sg24
I0
sbssg25
S'\xa1\x8f(\x85\xbf\xad\xd2+\xb1\x0e@\x1f\x10\xf7\xf7\x92'
p1042
ssS'IPython_utils_codeutil'
p1043
(dp1044
g6
(dp1045
g8
S'IPython_utils_codeutil.html'
p1046
sg10
S'IPython/utils/codeutil'
p1047
sg12
g13
(g14
g15
NtRp1048
(dp1049
g18
I1
sg19
I0
sg20
I18
sg21
I0
sg22
I0
sg23
I7
sg24
I0
sbssg25
S'\x91\x84\x85\xdc\x85\x99\x83-x\x00<]Zt/\x96'
p1050
ssS'IPython_kernel_zmq_heartbeat'
p1051
(dp1052
g6
(dp1053
g8
S'IPython_kernel_zmq_heartbeat.html'
p1054
sg10
S'IPython/kernel/zmq/heartbeat'
p1055
sg12
g13
(g14
g15
NtRp1056
(dp1057
g18
I1
sg19
I0
sg20
I38
sg21
I0
sg22
I0
sg23
I29
sg24
I0
sbssg25
S'\xd7.0\x06[QY\xaa\x19H\xba\xf2\xbb\x8c\xbd\xd8'
p1058
ssS'IPython_nbformat_v2_nbbase'
p1059
(dp1060
g6
(dp1061
g8
S'IPython_nbformat_v2_nbbase.html'
p1062
sg10
S'IPython/nbformat/v2/nbbase'
p1063
sg12
g13
(g14
g15
NtRp1064
(dp1065
g18
I1
sg19
I0
sg20
I114
sg21
I0
sg22
I0
sg23
I100
sg24
I0
sbssg25
S'.\xf7\xb2zZIhL\xe8\xf1\xb7^\xc8\xcc\xcb\xf6'
p1066
ssS'IPython_html_nbconvert___init__'
p1067
(dp1068
g6
(dp1069
g8
S'IPython_html_nbconvert___init__.html'
p1070
sg10
S'IPython/html/nbconvert/__init__'
p1071
sg12
g13
(g14
g15
NtRp1072
(dp1073
g18
I1
sg19
I0
sg20
I0
sg21
I0
sg22
I0
sg23
I0
sg24
I0
sbssg25
S'\xca\xf5\x9f\x7f\x88\xdfa\x831|T\x1d\xbc}\xa5v'
p1074
ssS'IPython_core_display'
p1075
(dp1076
g6
(dp1077
g8
S'IPython_core_display.html'
p1078
sg10
S'IPython/core/display'
p1079
sg12
g13
(g14
g15
NtRp1080
(dp1081
g18
I1
sg19
I0
sg20
I271
sg21
I0
sg22
I0
sg23
I206
sg24
I0
sbssg25
S'k\xdf\xd4L\xa1r\xe2{\xac\xd2e3\x01j\x17\xba'
p1082
ssS'IPython_utils_py3compat'
p1083
(dp1084
g6
(dp1085
g8
S'IPython_utils_py3compat.html'
p1086
sg10
S'IPython/utils/py3compat'
p1087
sg12
g13
(g14
g15
NtRp1088
(dp1089
g18
I1
sg19
I0
sg20
I145
sg21
I0
sg22
I0
sg23
I76
sg24
I0
sbssg25
S'\xb3ucHp?P\xa8\x04F\x99D\xd1\x1d\xb5\x86'
p1090
ssS'IPython_html_services___init__'
p1091
(dp1092
g6
(dp1093
g8
S'IPython_html_services___init__.html'
p1094
sg10
S'IPython/html/services/__init__'
p1095
sg12
g13
(g14
g15
NtRp1096
(dp1097
g18
I1
sg19
I0
sg20
I0
sg21
I0
sg22
I0
sg23
I0
sg24
I0
sbssg25
S'\xca\xf5\x9f\x7f\x88\xdfa\x831|T\x1d\xbc}\xa5v'
p1098
ssS'_usr_local_lib_python2_7_dist-packages_numpy-1_8_1-py2_7-linux-i686_egg_numpy_fft___init__'
p1099
(dp1100
g6
(dp1101
g8
S'_usr_local_lib_python2_7_dist-packages_numpy-1_8_1-py2_7-linux-i686_egg_numpy_fft___init__.html'
p1102
sg10
S'/usr/local/lib/python2.7/dist-packages/numpy-1.8.1-py2.7-linux-i686.egg/numpy/fft/__init__'
p1103
sg12
g13
(g14
g15
NtRp1104
(dp1105
g18
I1
sg19
I0
sg20
I7
sg21
I0
sg22
I0
sg23
I0
sg24
I0
sbssg25
S'\xfb\xf3+<\xef\t\xf7G\x9f:\xbe(\x1fL\x1f_'
p1106
ssS'_usr_local_lib_python2_7_dist-packages_numpy-1_8_1-py2_7-linux-i686_egg_numpy_compat__inspect'
p1107
(dp1108
g6
(dp1109
g8
S'_usr_local_lib_python2_7_dist-packages_numpy-1_8_1-py2_7-linux-i686_egg_numpy_compat__inspect.html'
p1110
sg10
S'/usr/local/lib/python2.7/dist-packages/numpy-1.8.1-py2.7-linux-i686.egg/numpy/compat/_inspect'
p1111
sg12
g13
(g14
g15
NtRp1112
(dp1113
g18
I1
sg19
I0
sg20
I106
sg21
I0
sg22
I0
sg23
I51
sg24
I0
sbssg25
S'$M\xe5jQ\xce\xf5\xf2\xcb\xc6\n\x8f\x8c\xea\x9b\x95'
p1114
ssS'IPython_core_oinspect'
p1115
(dp1116
g6
(dp1117
g8
S'IPython_core_oinspect.html'
p1118
sg10
S'IPython/core/oinspect'
p1119
sg12
g13
(g14
g15
NtRp1120
(dp1121
g18
I1
sg19
I0
sg20
I407
sg21
I0
sg22
I0
sg23
I349
sg24
I0
sbssg25
S'\xa6\xaa\x03Es\xdd\xd7\xdfH\xc3\xbb%\xab\x19#\x9b'
p1122
ssS'IPython_html_notebook___init__'
p1123
(dp1124
g6
(dp1125
g8
S'IPython_html_notebook___init__.html'
p1126
sg10
S'IPython/html/notebook/__init__'
p1127
sg12
g13
(g14
g15
NtRp1128
(dp1129
g18
I1
sg19
I0
sg20
I0
sg21
I0
sg22
I0
sg23
I0
sg24
I0
sbssg25
S'\xca\xf5\x9f\x7f\x88\xdfa\x831|T\x1d\xbc}\xa5v'
p1130
ssS'IPython_utils_daemonize'
p1131
(dp1132
g6
(dp1133
g8
S'IPython_utils_daemonize.html'
p1134
sg10
S'IPython/utils/daemonize'
p1135
sg12
g13
(g14
g15
NtRp1136
(dp1137
g18
I1
sg19
I0
sg20
I15
sg21
I0
sg22
I0
sg23
I13
sg24
I0
sbssg25
S'\x81;\x84\xdf\x83z\xa5\xc8\x8aj\xf7\x070\xa5Mr'
p1138
ssS'IPython_external_path___init__'
p1139
(dp1140
g6
(dp1141
g8
S'IPython_external_path___init__.html'
p1142
sg10
S'IPython/external/path/__init__'
p1143
sg12
g13
(g14
g15
NtRp1144
(dp1145
g18
I1
sg19
I0
sg20
I4
sg21
I0
sg22
I0
sg23
I0
sg24
I0
sbssg25
S'\xc9\xfe\x8a\xf0\xd76\x0bb\x84\x81U\xbbh\x0b\x12\x8c'
p1146
ssS'IPython_html_services_notebooks___init__'
p1147
(dp1148
g6
(dp1149
g8
S'IPython_html_services_notebooks___init__.html'
p1150
sg10
S'IPython/html/services/notebooks/__init__'
p1151
sg12
g13
(g14
g15
NtRp1152
(dp1153
g18
I1
sg19
I0
sg20
I0
sg21
I0
sg22
I0
sg23
I0
sg24
I0
sbssg25
S'\xca\xf5\x9f\x7f\x88\xdfa\x831|T\x1d\xbc}\xa5v'
p1154
ssS'_usr_local_lib_python2_7_dist-packages_tornado-3_2-py2_7-linux-i686_egg_tornado___init__'
p1155
(dp1156
g6
(dp1157
g8
S'_usr_local_lib_python2_7_dist-packages_tornado-3_2-py2_7-linux-i686_egg_tornado___init__.html'
p1158
sg10
S'/usr/local/lib/python2.7/dist-packages/tornado-3.2-py2.7-linux-i686.egg/tornado/__init__'
p1159
sg12
g13
(g14
g15
NtRp1160
(dp1161
g18
I1
sg19
I0
sg20
I4
sg21
I0
sg22
I0
sg23
I0
sg24
I0
sbssg25
S'*\x10\xe7i\xa3\xd1\xf9:\x97\xa8\xf1\xf9\xc6\xed\xd8\x84'
p1162
ssS'IPython_core_inputsplitter'
p1163
(dp1164
g6
(dp1165
g8
S'IPython_core_inputsplitter.html'
p1166
sg10
S'IPython/core/inputsplitter'
p1167
sg12
g13
(g14
g15
NtRp1168
(dp1169
g18
I1
sg19
I0
sg20
I221
sg21
I0
sg22
I0
sg23
I170
sg24
I0
sbssg25
S':gG\x8c\x9c\xc9\xf0q\x167m\x88b\xca\xa3\x10'
p1170
ssS'IPython_testing___init__'
p1171
(dp1172
g6
(dp1173
g8
S'IPython_testing___init__.html'
p1174
sg10
S'IPython/testing/__init__'
p1175
sg12
g13
(g14
g15
NtRp1176
(dp1177
g18
I1
sg19
I0
sg20
I7
sg21
I0
sg22
I0
sg23
I5
sg24
I0
sbssg25
S'V\xcdV\xb8\xf9TO\xa8\xb2\x7f\xa9p\x06\x0f&\xaf'
p1178
ssS'IPython_utils_pickleutil'
p1179
(dp1180
g6
(dp1181
g8
S'IPython_utils_pickleutil.html'
p1182
sg10
S'IPython/utils/pickleutil'
p1183
sg12
g13
(g14
g15
NtRp1184
(dp1185
g18
I1
sg19
I0
sg20
I219
sg21
I0
sg22
I0
sg23
I162
sg24
I0
sbssg25
S'T{\xb5\xf9`\x9c\xc1\xea\x17\xb7\xcd1Z^)Z'
p1186
ssS'_usr_local_lib_python2_7_dist-packages_numpy-1_8_1-py2_7-linux-i686_egg_numpy_core_records'
p1187
(dp1188
g6
(dp1189
g8
S'_usr_local_lib_python2_7_dist-packages_numpy-1_8_1-py2_7-linux-i686_egg_numpy_core_records.html'
p1190
sg10
S'/usr/local/lib/python2.7/dist-packages/numpy-1.8.1-py2.7-linux-i686.egg/numpy/core/records'
p1191
sg12
g13
(g14
g15
NtRp1192
(dp1193
g18
I1
sg19
I0
sg20
I356
sg21
I0
sg22
I0
sg23
I318
sg24
I0
sbssg25
S'\xf9\n\xffj\x82\xc1\xe4Y\xfe\xf7\x05%5C\x10Y'
p1194
ssS'IPython_html_base_handlers'
p1195
(dp1196
g6
(dp1197
g8
S'IPython_html_base_handlers.html'
p1198
sg10
S'IPython/html/base/handlers'
p1199
sg12
g13
(g14
g15
NtRp1200
(dp1201
g18
I1
sg19
I0
sg20
I191
sg21
I0
sg22
I0
sg23
I65
sg24
I0
sbssg25
S'A\x7fAB\xdfn\xa5\xcd%\xe1\xba\xdd#l\x0f\xd7'
p1202
ssS'_usr_share_pyshared_zmq_log___init__'
p1203
(dp1204
g6
(dp1205
g8
S'_usr_share_pyshared_zmq_log___init__.html'
p1206
sg10
S'/usr/share/pyshared/zmq/log/__init__'
p1207
sg12
g13
(g14
g15
NtRp1208
(dp1209
g18
I1
sg19
I0
sg20
I0
sg21
I0
sg22
I0
sg23
I0
sg24
I0
sbssg25
S'\xca\xf5\x9f\x7f\x88\xdfa\x831|T\x1d\xbc}\xa5v'
p1210
ssS'IPython_core_logger'
p1211
(dp1212
g6
(dp1213
g8
S'IPython_core_logger.html'
p1214
sg10
S'IPython/core/logger'
p1215
sg12
g13
(g14
g15
NtRp1216
(dp1217
g18
I1
sg19
I0
sg20
I110
sg21
I0
sg22
I0
sg23
I92
sg24
I0
sbssg25
S'\x14X[V\x0c"r$\xf5\xb9\xd2\xb8L\xba\x04$'
p1218
ssS'_usr_local_lib_python2_7_dist-packages_numpy-1_8_1-py2_7-linux-i686_egg_numpy_lib_arraypad'
p1219
(dp1220
g6
(dp1221
g8
S'_usr_local_lib_python2_7_dist-packages_numpy-1_8_1-py2_7-linux-i686_egg_numpy_lib_arraypad.html'
p1222
sg10
S'/usr/local/lib/python2.7/dist-packages/numpy-1.8.1-py2.7-linux-i686.egg/numpy/lib/arraypad'
p1223
sg12
g13
(g14
g15
NtRp1224
(dp1225
g18
I1
sg19
I0
sg20
I383
sg21
I0
sg22
I0
sg23
I357
sg24
I0
sbssg25
S'Nh\x94\xe2\x16\xc1\xbafR\x86S\xd2\x1f\x8a\x11N'
p1226
ssS'_usr_local_lib_python2_7_dist-packages_numpy-1_8_1-py2_7-linux-i686_egg_numpy_lib_format'
p1227
(dp1228
g6
(dp1229
g8
S'_usr_local_lib_python2_7_dist-packages_numpy-1_8_1-py2_7-linux-i686_egg_numpy_lib_format.html'
p1230
sg10
S'/usr/local/lib/python2.7/dist-packages/numpy-1.8.1-py2.7-linux-i686.egg/numpy/lib/format'
p1231
sg12
g13
(g14
g15
NtRp1232
(dp1233
g18
I1
sg19
I0
sg20
I178
sg21
I0
sg22
I0
sg23
I157
sg24
I0
sbssg25
S'\xe7\x89\xbc\xd8()(\xc6\xb9wF\x82qK`\xb5'
p1234
ssS'_usr_local_lib_python2_7_dist-packages_numpy-1_8_1-py2_7-linux-i686_egg_numpy_lib_financial'
p1235
(dp1236
g6
(dp1237
g8
S'_usr_local_lib_python2_7_dist-packages_numpy-1_8_1-py2_7-linux-i686_egg_numpy_lib_financial.html'
p1238
sg10
S'/usr/local/lib/python2.7/dist-packages/numpy-1.8.1-py2.7-linux-i686.egg/numpy/lib/financial'
p1239
sg12
g13
(g14
g15
NtRp1240
(dp1241
g18
I1
sg19
I0
sg20
I112
sg21
I0
sg22
I0
sg23
I94
sg24
I0
sbssg25
S'\xd4a\x9d\xf73;q\r\xa0o{`\xe9F\xe4\x80'
p1242
ssS'IPython_html_auth___init__'
p1243
(dp1244
g6
(dp1245
g8
S'IPython_html_auth___init__.html'
p1246
sg10
S'IPython/html/auth/__init__'
p1247
sg12
g13
(g14
g15
NtRp1248
(dp1249
g18
I1
sg19
I0
sg20
I0
sg21
I0
sg22
I0
sg23
I0
sg24
I0
sbssg25
S'\xca\xf5\x9f\x7f\x88\xdfa\x831|T\x1d\xbc}\xa5v'
p1250
ssS'IPython_utils_pickleshare'
p1251
(dp1252
g6
(dp1253
g8
S'IPython_utils_pickleshare.html'
p1254
sg10
S'IPython/utils/pickleshare'
p1255
sg12
g13
(g14
g15
NtRp1256
(dp1257
g18
I1
sg19
I0
sg20
I214
sg21
I0
sg22
I0
sg23
I178
sg24
I0
sbssg25
S"<.\xd2\x11\x1e\x85\xde1\xa0\xa9\xb8\xdcj\xc0N'"
p1258
ssS'IPython_terminal_embed'
p1259
(dp1260
g6
(dp1261
g8
S'IPython_terminal_embed.html'
p1262
sg10
S'IPython/terminal/embed'
p1263
sg12
g13
(g14
g15
NtRp1264
(dp1265
g18
I1
sg19
I0
sg20
I96
sg21
I0
sg22
I0
sg23
I68
sg24
I0
sbssg25
S'\xe8n\xc9+\xac\xc37\x9eG\x9d:\xe1,[\xc8^'
p1266
ssS'_usr_local_lib_python2_7_dist-packages_numpy-1_8_1-py2_7-linux-i686_egg_numpy_matrixlib___init__'
p1267
(dp1268
g6
(dp1269
g8
S'_usr_local_lib_python2_7_dist-packages_numpy-1_8_1-py2_7-linux-i686_egg_numpy_matrixlib___init__.html'
p1270
sg10
S'/usr/local/lib/python2.7/dist-packages/numpy-1.8.1-py2.7-linux-i686.egg/numpy/matrixlib/__init__'
p1271
sg12
g13
(g14
g15
NtRp1272
(dp1273
g18
I1
sg19
I0
sg20
I6
sg21
I0
sg22
I0
sg23
I0
sg24
I0
sbssg25
S'\xbd\t\xbc\x04\x13\xe5\x04\xd8k\x0b\xcb\x16\x8e\xfd\xf6\x97'
p1274
ssS'_usr_local_lib_python2_7_dist-packages_numpy-1_8_1-py2_7-linux-i686_egg_numpy_core__internal'
p1275
(dp1276
g6
(dp1277
g8
S'_usr_local_lib_python2_7_dist-packages_numpy-1_8_1-py2_7-linux-i686_egg_numpy_core__internal.html'
p1278
sg10
S'/usr/local/lib/python2.7/dist-packages/numpy-1.8.1-py2.7-linux-i686.egg/numpy/core/_internal'
p1279
sg12
g13
(g14
g15
NtRp1280
(dp1281
g18
I1
sg19
I0
sg20
I350
sg21
I0
sg22
I0
sg23
I297
sg24
I0
sbssg25
S'\xe5\xa1\xa7g>^$\xfe/\x91\x9b\xd6$\xff\xa1/'
p1282
ssS'IPython_core_prefilter'
p1283
(dp1284
g6
(dp1285
g8
S'IPython_core_prefilter.html'
p1286
sg10
S'IPython/core/prefilter'
p1287
sg12
g13
(g14
g15
NtRp1288
(dp1289
g18
I1
sg19
I0
sg20
I276
sg21
I0
sg22
I0
sg23
I171
sg24
I0
sbssg25
S'\x99_\xb0s}\x90I\xc2\xa7\x03\xc5\xbf\xef\x90\xa5\x11'
p1290
ssS'_usr_local_lib_python2_7_dist-packages_numpy-1_8_1-py2_7-linux-i686_egg_numpy_core_arrayprint'
p1291
(dp1292
g6
(dp1293
g8
S'_usr_local_lib_python2_7_dist-packages_numpy-1_8_1-py2_7-linux-i686_egg_numpy_core_arrayprint.html'
p1294
sg10
S'/usr/local/lib/python2.7/dist-packages/numpy-1.8.1-py2.7-linux-i686.egg/numpy/core/arrayprint'
p1295
sg12
g13
(g14
g15
NtRp1296
(dp1297
g18
I1
sg19
I0
sg20
I354
sg21
I0
sg22
I0
sg23
I300
sg24
I0
sbssg25
S'\xc3:\xb9\xd2\xcb\x81\xde\xc6\xaf\xe1\xdb\xeb\x90\x8e\xda\xd5'
p1298
ssS'_usr_share_pyshared_simplegeneric'
p1299
(dp1300
g6
(dp1301
g8
S'_usr_share_pyshared_simplegeneric.html'
p1302
sg10
S'/usr/share/pyshared/simplegeneric'
p1303
sg12
g13
(g14
g15
NtRp1304
(dp1305
g18
I1
sg19
I0
sg20
I55
sg21
I0
sg22
I0
sg23
I31
sg24
I0
sbssg25
S'Y\x94\x93\xd5\x98\x8b4\xaa\x0b\x96\xb2;\x9e\xdeJ\x8f'
p1306
ssS'_usr_local_lib_python2_7_dist-packages_tornado-3_2-py2_7-linux-i686_egg_tornado_ioloop'
p1307
(dp1308
g6
(dp1309
g8
S'_usr_local_lib_python2_7_dist-packages_tornado-3_2-py2_7-linux-i686_egg_tornado_ioloop.html'
p1310
sg10
S'/usr/local/lib/python2.7/dist-packages/tornado-3.2-py2.7-linux-i686.egg/tornado/ioloop'
p1311
sg12
g13
(g14
g15
NtRp1312
(dp1313
g18
I1
sg19
I0
sg20
I344
sg21
I0
sg22
I0
sg23
I243
sg24
I0
sbssg25
S'\xa2\r%D;m0\xdc\x0e\xcd\\\x19\xf1bo\\'
p1314
ssS'_usr_local_lib_python2_7_dist-packages_jinja2_environment'
p1315
(dp1316
g6
(dp1317
g8
S'_usr_local_lib_python2_7_dist-packages_jinja2_environment.html'
p1318
sg10
S'/usr/local/lib/python2.7/dist-packages/jinja2/environment'
p1319
sg12
g13
(g14
g15
NtRp1320
(dp1321
g18
I1
sg19
I0
sg20
I488
sg21
I0
sg22
I0
sg23
I291
sg24
I0
sbssg25
S'j\xe0\x9dnj\x0cGR\x10\xce{*\xbd\xd6\xaa#'
p1322
ssS'IPython_utils_version'
p1323
(dp1324
g6
(dp1325
g8
S'IPython_utils_version.html'
p1326
sg10
S'IPython/utils/version'
p1327
sg12
g13
(g14
g15
NtRp1328
(dp1329
g18
I1
sg19
I0
sg20
I7
sg21
I0
sg22
I0
sg23
I2
sg24
I0
sbssg25
S'\t1\x842\xff\xfb\x08t\xa7\x0f\xf0\x9eQ\x1af\xaa'
p1330
ssS'_usr_local_lib_python2_7_dist-packages_numpy-1_8_1-py2_7-linux-i686_egg_numpy_lib_ufunclike'
p1331
(dp1332
g6
(dp1333
g8
S'_usr_local_lib_python2_7_dist-packages_numpy-1_8_1-py2_7-linux-i686_egg_numpy_lib_ufunclike.html'
p1334
sg10
S'/usr/local/lib/python2.7/dist-packages/numpy-1.8.1-py2.7-linux-i686.egg/numpy/lib/ufunclike'
p1335
sg12
g13
(g14
g15
NtRp1336
(dp1337
g18
I1
sg19
I0
sg20
I23
sg21
I0
sg22
I0
sg23
I17
sg24
I0
sbssg25
S'\xb5q\xee\x8d\xbf\x96\x08\xf2Q1\xad\xe6$r\xfb\x13'
p1338
ssS'IPython_core___init__'
p1339
(dp1340
g6
(dp1341
g8
S'IPython_core___init__.html'
p1342
sg10
S'IPython/core/__init__'
p1343
sg12
g13
(g14
g15
NtRp1344
(dp1345
g18
I1
sg19
I0
sg20
I0
sg21
I0
sg22
I0
sg23
I0
sg24
I0
sbssg25
S'\xca\xf5\x9f\x7f\x88\xdfa\x831|T\x1d\xbc}\xa5v'
p1346
ssS'IPython_extensions_storemagic'
p1347
(dp1348
g6
(dp1349
g8
S'IPython_extensions_storemagic.html'
p1350
sg10
S'IPython/extensions/storemagic'
p1351
sg12
g13
(g14
g15
NtRp1352
(dp1353
g18
I1
sg19
I0
sg20
I112
sg21
I0
sg22
I0
sg23
I92
sg24
I0
sbssg25
S'\x04O[\xdd\x1c\xb7|\xd8|n0\x1c\x8b\xfd\xf52'
p1354
ssS'IPython_html_base_zmqhandlers'
p1355
(dp1356
g6
(dp1357
g8
S'IPython_html_base_zmqhandlers.html'
p1358
sg10
S'IPython/html/base/zmqhandlers'
p1359
sg12
g13
(g14
g15
NtRp1360
(dp1361
g18
I1
sg19
I0
sg20
I78
sg21
I0
sg22
I0
sg23
I15
sg24
I0
sbssg25
S'\xa3\xbbV\x84\x9e\xb1\xae\xa7\xffx\xabb\xc4\xef`"'
p1362
ssS'IPython_core_displaypub'
p1363
(dp1364
g6
(dp1365
g8
S'IPython_core_displaypub.html'
p1366
sg10
S'IPython/core/displaypub'
p1367
sg12
g13
(g14
g15
NtRp1368
(dp1369
g18
I1
sg19
I0
sg20
I32
sg21
I0
sg22
I0
sg23
I18
sg24
I0
sbssg25
S'f`\x04\xf6\xe1\xd0p\xb4\xc7\xb9%T\x82w[\xb9'
p1370
ssS'_usr_local_lib_python2_7_dist-packages_numpy-1_8_1-py2_7-linux-i686_egg_numpy_polynomial_hermite_e'
p1371
(dp1372
g6
(dp1373
g8
S'_usr_local_lib_python2_7_dist-packages_numpy-1_8_1-py2_7-linux-i686_egg_numpy_polynomial_hermite_e.html'
p1374
sg10
S'/usr/local/lib/python2.7/dist-packages/numpy-1.8.1-py2.7-linux-i686.egg/numpy/polynomial/hermite_e'
p1375
sg12
g13
(g14
g15
NtRp1376
(dp1377
g18
I1
sg19
I0
sg20
I379
sg21
I0
sg22
I0
sg23
I341
sg24
I0
sbssg25
S"\xa6\x8e\xe9K\xc9'6\xa8DdQ\x05O\xa3\xa5\x08"
p1378
ssS'_usr_share_pyshared_zmq_devices___init__'
p1379
(dp1380
g6
(dp1381
g8
S'_usr_share_pyshared_zmq_devices___init__.html'
p1382
sg10
S'/usr/share/pyshared/zmq/devices/__init__'
p1383
sg12
g13
(g14
g15
NtRp1384
(dp1385
g18
I1
sg19
I0
sg20
I8
sg21
I0
sg22
I0
sg23
I0
sg24
I0
sbssg25
S'|\x80R\xbb;h]II\xbcv\x8bDN\x98#'
p1386
ssS'_usr_local_lib_python2_7_dist-packages_jinja2_optimizer'
p1387
(dp1388
g6
(dp1389
g8
S'_usr_local_lib_python2_7_dist-packages_jinja2_optimizer.html'
p1390
sg10
S'/usr/local/lib/python2.7/dist-packages/jinja2/optimizer'
p1391
sg12
g13
(g14
g15
NtRp1392
(dp1393
g18
I1
sg19
I0
sg20
I31
sg21
I0
sg22
I0
sg23
I8
sg24
I0
sbssg25
S"v\x90\x17@`\xb3wT\x0e\xa4X'\xf4g\x94."
p1394
ssS'IPython_parallel_controller_dependency'
p1395
(dp1396
g6
(dp1397
g8
S'IPython_parallel_controller_dependency.html'
p1398
sg10
S'IPython/parallel/controller/dependency'
p1399
sg12
g13
(g14
g15
NtRp1400
(dp1401
g18
I1
sg19
I0
sg20
I107
sg21
I0
sg22
I0
sg23
I80
sg24
I0
sbssg25
S'\x10CE\xe8\xf5U\xe3\xca\xabF\xe6X\x08.\x94\xc5'
p1402
ssS'IPython_core_builtin_trap'
p1403
(dp1404
g6
(dp1405
g8
S'IPython_core_builtin_trap.html'
p1406
sg10
S'IPython/core/builtin_trap'
p1407
sg12
g13
(g14
g15
NtRp1408
(dp1409
g18
I1
sg19
I0
sg20
I55
sg21
I0
sg22
I0
sg23
I39
sg24
I0
sbssg25
S'!\x86\xc4XV5\xed\x03\xf6\x97#\x1a\xa6\xf1\xaf\x19'
p1410
ssS'IPython_core_magics_extension'
p1411
(dp1412
g6
(dp1413
g8
S'IPython_core_magics_extension.html'
p1414
sg10
S'IPython/core/magics/extension'
p1415
sg12
g13
(g14
g15
NtRp1416
(dp1417
g18
I1
sg19
I0
sg20
I38
sg21
I0
sg22
I0
sg23
I27
sg24
I0
sbssg25
S'}\xe8\xcbpE\xb7X\xc7\x19\xd4N^\x83h\x1e\x9b'
p1418
ssS'IPython_nbformat_current'
p1419
(dp1420
g6
(dp1421
g8
S'IPython_nbformat_current.html'
p1422
sg10
S'IPython/nbformat/current'
p1423
sg12
g13
(g14
g15
NtRp1424
(dp1425
g18
I1
sg19
I0
sg20
I71
sg21
I0
sg22
I0
sg23
I36
sg24
I0
sbssg25
S'\x96a\xb9\x11NP\xe1Dh\xa7\x85\x83\xce\xd9\x99\xb5'
p1426
ssS'IPython_nbformat_v3_nbjson'
p1427
(dp1428
g6
(dp1429
g8
S'IPython_nbformat_v3_nbjson.html'
p1430
sg10
S'IPython/nbformat/v3/nbjson'
p1431
sg12
g13
(g14
g15
NtRp1432
(dp1433
g18
I1
sg19
I0
sg20
I33
sg21
I0
sg22
I0
sg23
I6
sg24
I0
sbssg25
S'\xa8P\xc1_\xd6\xc5t\xa6\xc0\x03\xbc\xf9\xd9\x9b\xe3\xf9'
p1434
ssS'IPython_parallel_client_client'
p1435
(dp1436
g6
(dp1437
g8
S'IPython_parallel_client_client.html'
p1438
sg10
S'IPython/parallel/client/client'
p1439
sg12
g13
(g14
g15
NtRp1440
(dp1441
g18
I1
sg19
I0
sg20
I948
sg21
I0
sg22
I0
sg23
I811
sg24
I0
sbssg25
S'\xfd\x95\xac\x10Q\xe1\xad\r\xc9\x97\xe5\\\x1a\xc5\x9e\x1a'
p1442
ssS'_usr_local_lib_python2_7_dist-packages_numpy-1_8_1-py2_7-linux-i686_egg_numpy_lib_type_check'
p1443
(dp1444
g6
(dp1445
g8
S'_usr_local_lib_python2_7_dist-packages_numpy-1_8_1-py2_7-linux-i686_egg_numpy_lib_type_check.html'
p1446
sg10
S'/usr/local/lib/python2.7/dist-packages/numpy-1.8.1-py2.7-linux-i686.egg/numpy/lib/type_check'
p1447
sg12
g13
(g14
g15
NtRp1448
(dp1449
g18
I1
sg19
I0
sg20
I104
sg21
I0
sg22
I0
sg23
I81
sg24
I0
sbssg25
S'\x83\x19E\xab\xef\xa5\x15N\xc3\xecc\x8b\xf5\x89\x8f\xf1'
p1450
ssS'IPython_core_formatters'
p1451
(dp1452
g6
(dp1453
g8
S'IPython_core_formatters.html'
p1454
sg10
S'IPython/core/formatters'
p1455
sg12
g13
(g14
g15
NtRp1456
(dp1457
g18
I1
sg19
I0
sg20
I257
sg21
I0
sg22
I0
sg23
I160
sg24
I0
sbssg25
S'?\x04|\x88m:+\xe0\xc7\x13p\x97\xff\xb31\xc2'
p1458
ssS'IPython_utils___init__'
p1459
(dp1460
g6
(dp1461
g8
S'IPython_utils___init__.html'
p1462
sg10
S'IPython/utils/__init__'
p1463
sg12
g13
(g14
g15
NtRp1464
(dp1465
g18
I1
sg19
I0
sg20
I0
sg21
I0
sg22
I0
sg23
I0
sg24
I0
sbssg25
S'\xca\xf5\x9f\x7f\x88\xdfa\x831|T\x1d\xbc}\xa5v'
p1466
ssS'_usr_share_pyshared_zmq_utils___init__'
p1467
(dp1468
g6
(dp1469
g8
S'_usr_share_pyshared_zmq_utils___init__.html'
p1470
sg10
S'/usr/share/pyshared/zmq/utils/__init__'
p1471
sg12
g13
(g14
g15
NtRp1472
(dp1473
g18
I1
sg19
I0
sg20
I0
sg21
I0
sg22
I0
sg23
I0
sg24
I0
sbssg25
S'\xca\xf5\x9f\x7f\x88\xdfa\x831|T\x1d\xbc}\xa5v'
p1474
ssS'IPython_html_auth_logout'
p1475
(dp1476
g6
(dp1477
g8
S'IPython_html_auth_logout.html'
p1478
sg10
S'IPython/html/auth/logout'
p1479
sg12
g13
(g14
g15
NtRp1480
(dp1481
g18
I1
sg19
I0
sg20
I9
sg21
I0
sg22
I0
sg23
I5
sg24
I0
sbssg25
S'\xd7\xd6\x82\xb5aJ\xf4"\xdfi\xde\x1b_O\xd7e'
p1482
ssS'IPython_parallel_apps_ipclusterapp'
p1483
(dp1484
g6
(dp1485
g8
S'IPython_parallel_apps_ipclusterapp.html'
p1486
sg10
S'IPython/parallel/apps/ipclusterapp'
p1487
sg12
g13
(g14
g15
NtRp1488
(dp1489
g18
I1
sg19
I0
sg20
I262
sg21
I0
sg22
I0
sg23
I147
sg24
I0
sbssg25
S'\xdc\xc7\x9b\x19\xff\x0f\xa8Z\x97\xe9<<\x1d}\x13^'
p1490
ssS'IPython_kernel_blocking_channels'
p1491
(dp1492
g6
(dp1493
g8
S'IPython_kernel_blocking_channels.html'
p1494
sg10
S'IPython/kernel/blocking/channels'
p1495
sg12
g13
(g14
g15
NtRp1496
(dp1497
g18
I1
sg19
I0
sg20
I35
sg21
I0
sg22
I0
sg23
I15
sg24
I0
sbssg25
S'\xb9p\xecQ\xd7\x99\xf7\x10\x0f\x0f~\r\xcfr1\xd7'
p1498
ssS'IPython_utils__process_posix'
p1499
(dp1500
g6
(dp1501
g8
S'IPython_utils__process_posix.html'
p1502
sg10
S'IPython/utils/_process_posix'
p1503
sg12
g13
(g14
g15
NtRp1504
(dp1505
g18
I1
sg19
I0
sg20
I71
sg21
I0
sg22
I0
sg23
I49
sg24
I0
sbssg25
S'\x0b\xc7\xfd\x8e\xfb\x0e\xa4\xa51\xdf\x96\xe1\x8767\n'
p1506
ssS'_usr_share_pyshared_zmq_core___init__'
p1507
(dp1508
g6
(dp1509
g8
S'_usr_share_pyshared_zmq_core___init__.html'
p1510
sg10
S'/usr/share/pyshared/zmq/core/__init__'
p1511
sg12
g13
(g14
g15
NtRp1512
(dp1513
g18
I1
sg19
I0
sg20
I13
sg21
I0
sg22
I0
sg23
I0
sg24
I0
sbssg25
S'\x9fy\x1a`O\xf8mrm`\x87:\x81\xbe;\x89'
p1514
ssS'_usr_share_pyshared_pexpect'
p1515
(dp1516
g6
(dp1517
g8
S'_usr_share_pyshared_pexpect.html'
p1518
sg10
S'/usr/share/pyshared/pexpect'
p1519
sg12
g13
(g14
g15
NtRp1520
(dp1521
g18
I1
sg19
I0
sg20
I763
sg21
I0
sg22
I0
sg23
I681
sg24
I0
sbssg25
S'.aT\x8c\x98\x01\xb1\xf9\xeb\x94qC\xc9G\xf4T'
p1522
ssS'IPython_core_interactiveshell'
p1523
(dp1524
g6
(dp1525
g8
S'IPython_core_interactiveshell.html'
p1526
sg10
S'IPython/core/interactiveshell'
p1527
sg12
g13
(g14
g15
NtRp1528
(dp1529
g18
I1
sg19
I0
sg20
I1294
sg21
I0
sg22
I0
sg23
I1021
sg24
I0
sbssg25
S'\xf7uo\xda>x\x17I\xfa\x91>]v+\x18\xed'
p1530
ssS'IPython_html_services_sessions_sessionmanager'
p1531
(dp1532
g6
(dp1533
g8
S'IPython_html_services_sessions_sessionmanager.html'
p1534
sg10
S'IPython/html/services/sessions/sessionmanager'
p1535
sg12
g13
(g14
g15
NtRp1536
(dp1537
g18
I1
sg19
I0
sg20
I73
sg21
I0
sg22
I0
sg23
I20
sg24
I0
sbssg25
S'\xcc@\xe5\xa86y\xc9\xe6\xf3\xa6\xcbO\xcf\xb3\x8e\x97'
p1538
ssS'IPython_core_prompts'
p1539
(dp1540
g6
(dp1541
g8
S'IPython_core_prompts.html'
p1542
sg10
S'IPython/core/prompts'
p1543
sg12
g13
(g14
g15
NtRp1544
(dp1545
g18
I1
sg19
I0
sg20
I146
sg21
I0
sg22
I0
sg23
I82
sg24
I0
sbssg25
S'\xd6\x0fA\xb0\xff\x85Z:=\x89\x97\x93\xa1i1\xc4'
p1546
ssS'_usr_local_lib_python2_7_dist-packages_numpy-1_8_1-py2_7-linux-i686_egg_numpy_lib_stride_tricks'
p1547
(dp1548
g6
(dp1549
g8
S'_usr_local_lib_python2_7_dist-packages_numpy-1_8_1-py2_7-linux-i686_egg_numpy_lib_stride_tricks.html'
p1550
sg10
S'/usr/local/lib/python2.7/dist-packages/numpy-1.8.1-py2.7-linux-i686.egg/numpy/lib/stride_tricks'
p1551
sg12
g13
(g14
g15
NtRp1552
(dp1553
g18
I1
sg19
I0
sg20
I48
sg21
I0
sg22
I0
sg23
I41
sg24
I0
sbssg25
S"e''V\xb1\xe8Z\x8d6~\x18\x8f\x83\xcab\x80"
p1554
ssS'_usr_local_lib_python2_7_dist-packages_jinja2_lexer'
p1555
(dp1556
g6
(dp1557
g8
S'_usr_local_lib_python2_7_dist-packages_jinja2_lexer.html'
p1558
sg10
S'/usr/local/lib/python2.7/dist-packages/jinja2/lexer'
p1559
sg12
g13
(g14
g15
NtRp1560
(dp1561
g18
I1
sg19
I0
sg20
I346
sg21
I0
sg22
I0
sg23
I86
sg24
I0
sbssg25
S'$\x98V\xe6\xd5\xd6\xe9\x9c\x93m\xe4\x98T\xa8\xff\xa4'
p1562
ssS'_usr_local_lib_python2_7_dist-packages_numpy-1_8_1-py2_7-linux-i686_egg_numpy_lib_shape_base'
p1563
(dp1564
g6
(dp1565
g8
S'_usr_local_lib_python2_7_dist-packages_numpy-1_8_1-py2_7-linux-i686_egg_numpy_lib_shape_base.html'
p1566
sg10
S'/usr/local/lib/python2.7/dist-packages/numpy-1.8.1-py2.7-linux-i686.egg/numpy/lib/shape_base'
p1567
sg12
g13
(g14
g15
NtRp1568
(dp1569
g18
I1
sg19
I0
sg20
I200
sg21
I0
sg22
I0
sg23
I178
sg24
I0
sbssg25
S'{\xddK\xb5\t\x05\x12\xf5Lr\x9bN\x95}\x86\xc5'
p1570
ssS'IPython_utils__sysinfo'
p1571
(dp1572
g6
(dp1573
g8
S'IPython_utils__sysinfo.html'
p1574
sg10
S'IPython/utils/_sysinfo'
p1575
sg12
g13
(g14
g15
NtRp1576
(dp1577
g18
I1
sg19
I0
sg20
I1
sg21
I0
sg22
I0
sg23
I0
sg24
I0
sbssg25
S'\x8f\xe8@,a\x9c\x94Z\xaf/\x99\xd4\x86!\x1eD'
p1578
ssS'_usr_local_lib_python2_7_dist-packages_numpy-1_8_1-py2_7-linux-i686_egg_numpy_lib_scimath'
p1579
(dp1580
g6
(dp1581
g8
S'_usr_local_lib_python2_7_dist-packages_numpy-1_8_1-py2_7-linux-i686_egg_numpy_lib_scimath.html'
p1582
sg10
S'/usr/local/lib/python2.7/dist-packages/numpy-1.8.1-py2.7-linux-i686.egg/numpy/lib/scimath'
p1583
sg12
g13
(g14
g15
NtRp1584
(dp1585
g18
I1
sg19
I0
sg20
I55
sg21
I0
sg22
I0
sg23
I35
sg24
I0
sbssg25
S'~\xe4;\xd08/\xd07\xa4\xde6}\xfe\xf2\xed\x0e'
p1586
ssS'IPython_core_release'
p1587
(dp1588
g6
(dp1589
g8
S'IPython_core_release.html'
p1590
sg10
S'IPython/core/release'
p1591
sg12
g13
(g14
g15
NtRp1592
(dp1593
g18
I1
sg19
I0
sg20
I25
sg21
I0
sg22
I0
sg23
I0
sg24
I0
sbssg25
S'\x80\xb5\x9c\xd3\xce\xcdf\xf7^\x145{\xaa\xba\xfc\x14'
p1594
ssS'IPython_kernel_zmq_serialize'
p1595
(dp1596
g6
(dp1597
g8
S'IPython_kernel_zmq_serialize.html'
p1598
sg10
S'IPython/kernel/zmq/serialize'
p1599
sg12
g13
(g14
g15
NtRp1600
(dp1601
g18
I1
sg19
I0
sg20
I94
sg21
I0
sg22
I0
sg23
I79
sg24
I0
sbssg25
S'\xe0+W\x13I\xca"\xd9\xfbR\x9at\x19\xe6\xc0\xcd'
p1602
ssS'IPython_kernel_zmq_ipkernel'
p1603
(dp1604
g6
(dp1605
g8
S'IPython_kernel_zmq_ipkernel.html'
p1606
sg10
S'IPython/kernel/zmq/ipkernel'
p1607
sg12
g13
(g14
g15
NtRp1608
(dp1609
g18
I1
sg19
I0
sg20
I434
sg21
I0
sg22
I0
sg23
I354
sg24
I0
sbssg25
S'\x04\xf1e\xdbP\x8b\xf4i\xf8\xaa\xe5)\x96\x0e\xf9\xc1'
p1610
ssS'IPython_core_magics_pylab'
p1611
(dp1612
g6
(dp1613
g8
S'IPython_core_magics_pylab.html'
p1614
sg10
S'IPython/core/magics/pylab'
p1615
sg12
g13
(g14
g15
NtRp1616
(dp1617
g18
I1
sg19
I0
sg20
I42
sg21
I0
sg22
I0
sg23
I20
sg24
I0
sbssg25
S"\x8d.\xed\xff\xe3\xd0\xde\xc7]\x80*w\x82\x86\x97'"
p1618
ssS'IPython_lib_display'
p1619
(dp1620
g6
(dp1621
g8
S'IPython_lib_display.html'
p1622
sg10
S'IPython/lib/display'
p1623
sg12
g13
(g14
g15
NtRp1624
(dp1625
g18
I1
sg19
I0
sg20
I179
sg21
I0
sg22
I0
sg23
I144
sg24
I0
sbssg25
S'Q\xf9\x8d\xeb?\x9b\xc7IJZN\xc3\xc8\xd5`\xae'
p1626
ssS'_usr_local_lib_python2_7_dist-packages_jinja2___init__'
p1627
(dp1628
g6
(dp1629
g8
S'_usr_local_lib_python2_7_dist-packages_jinja2___init__.html'
p1630
sg10
S'/usr/local/lib/python2.7/dist-packages/jinja2/__init__'
p1631
sg12
g13
(g14
g15
NtRp1632
(dp1633
g18
I1
sg19
I0
sg20
I11
sg21
I0
sg22
I0
sg23
I0
sg24
I0
sbssg25
S'\xc2$\x8d\x9e.l\x1b;A\t,G\xf5\xf12\x91'
p1634
ssS'IPython_core_page'
p1635
(dp1636
g6
(dp1637
g8
S'IPython_core_page.html'
p1638
sg10
S'IPython/core/page'
p1639
sg12
g13
(g14
g15
NtRp1640
(dp1641
g18
I1
sg19
I0
sg20
I171
sg21
I0
sg22
I0
sg23
I147
sg24
I0
sbssg25
S'i?\xa1\xfcvf|!\xf5\xd3\xfa\xbf[\xc3\x0bN'
p1642
ssS'IPython_utils_process'
p1643
(dp1644
g6
(dp1645
g8
S'IPython_utils_process.html'
p1646
sg10
S'IPython/utils/process'
p1647
sg12
g13
(g14
g15
NtRp1648
(dp1649
g18
I1
sg19
I0
sg20
I43
sg21
I0
sg22
I0
sg23
I28
sg24
I0
sbssg25
S'\xd2\xdb\x04\xb6\x7f5\x1aI\x17\xe6\x1b\x01R\x93\x16\x16'
p1650
ssS'IPython_lib_pretty'
p1651
(dp1652
g6
(dp1653
g8
S'IPython_lib_pretty.html'
p1654
sg10
S'IPython/lib/pretty'
p1655
sg12
g13
(g14
g15
NtRp1656
(dp1657
g18
I1
sg19
I0
sg20
I457
sg21
I0
sg22
I0
sg23
I371
sg24
I0
sbssg25
S'\xe7"\xa7(\xdaX\x9d%&\xc10\x00\xc2\xd7\xb1V'
p1658
ssS'IPython_config_configurable'
p1659
(dp1660
g6
(dp1661
g8
S'IPython_config_configurable.html'
p1662
sg10
S'IPython/config/configurable'
p1663
sg12
g13
(g14
g15
NtRp1664
(dp1665
g18
I1
sg19
I0
sg20
I147
sg21
I0
sg22
I0
sg23
I66
sg24
I0
sbssg25
S"\x8b\xf8\xc7\xcb\xcbW\xb1\xf8\x86\xa4'+\xdbB|3"
p1666
ssS'IPython_utils_generics'
p1667
(dp1668
g6
(dp1669
g8
S'IPython_utils_generics.html'
p1670
sg10
S'IPython/utils/generics'
p1671
sg12
g13
(g14
g15
NtRp1672
(dp1673
g18
I1
sg19
I0
sg20
I7
sg21
I0
sg22
I0
sg23
I2
sg24
I0
sbssg25
S'$?\x9de\x05\xcf\xc9Q\x1f\xc5\x17<\x84\xe1\x0f\xc7'
p1674
ssS'IPython_kernel_restarter'
p1675
(dp1676
g6
(dp1677
g8
S'IPython_kernel_restarter.html'
p1678
sg10
S'IPython/kernel/restarter'
p1679
sg12
g13
(g14
g15
NtRp1680
(dp1681
g18
I1
sg19
I0
sg20
I47
sg21
I0
sg22
I0
sg23
I25
sg24
I0
sbssg25
S'y\xe4\x86X\x1b\x87\xb6\x93\xc7t\xf1\xbc?\xb8\x8e\xca'
p1682
ssS'IPython_kernel_inprocess_client'
p1683
(dp1684
g6
(dp1685
g8
S'IPython_kernel_inprocess_client.html'
p1686
sg10
S'IPython/kernel/inprocess/client'
p1687
sg12
g13
(g14
g15
NtRp1688
(dp1689
g18
I1
sg19
I0
sg20
I30
sg21
I0
sg22
I0
sg23
I14
sg24
I0
sbssg25
S'\xbb3\xb7\xad:oP\x90\xf3\x10\x1c\xfcy\xc2x\xb7'
p1690
ssS'IPython_utils_ulinecache'
p1691
(dp1692
g6
(dp1693
g8
S'IPython_utils_ulinecache.html'
p1694
sg10
S'IPython/utils/ulinecache'
p1695
sg12
g13
(g14
g15
NtRp1696
(dp1697
g18
I1
sg19
I0
sg20
I26
sg21
I0
sg22
I0
sg23
I18
sg24
I0
sbssg25
S'\x15\xe6\xfa&Z\xd0\x14\xbe\xb35>n\xa5\x80%&'
p1698
ssS'_usr_local_lib_python2_7_dist-packages_backports_ssl_match_hostname-3_4_0_2-py2_7_egg_backports___init__'
p1699
(dp1700
g6
(dp1701
g8
S'_usr_local_lib_python2_7_dist-packages_backports_ssl_match_hostname-3_4_0_2-py2_7_egg_backports___init__.html'
p1702
sg10
S'/usr/local/lib/python2.7/dist-packages/backports.ssl_match_hostname-3.4.0.2-py2.7.egg/backports/__init__'
p1703
sg12
g13
(g14
g15
NtRp1704
(dp1705
g18
I1
sg19
I0
sg20
I2
sg21
I0
sg22
I0
sg23
I0
sg24
I0
sbssg25
S'\x89\xc4H\xe7\xdbg)l\x7f~\xbf\xf72Nyy'
p1706
ssS'IPython_kernel_inprocess_channels'
p1707
(dp1708
g6
(dp1709
g8
S'IPython_kernel_inprocess_channels.html'
p1710
sg10
S'IPython/kernel/inprocess/channels'
p1711
sg12
g13
(g14
g15
NtRp1712
(dp1713
g18
I1
sg19
I0
sg20
I82
sg21
I0
sg22
I0
sg23
I47
sg24
I0
sbssg25
S'+\xc6\xad}99\xc4\xac\xf7\xa67\x98?W\x10g'
p1714
ssS'IPython_core_magics_script'
p1715
(dp1716
g6
(dp1717
g8
S'IPython_core_magics_script.html'
p1718
sg10
S'IPython/core/magics/script'
p1719
sg12
g13
(g14
g15
NtRp1720
(dp1721
g18
I1
sg19
I0
sg20
I138
sg21
I0
sg22
I0
sg23
I101
sg24
I0
sbssg25
S'\xb4\xf8c\x8e\x1e:\x16\x06\xadzL\xc3LV\xbe\x80'
p1722
ssS'_usr_local_lib_python2_7_dist-packages_tornado-3_2-py2_7-linux-i686_egg_tornado_websocket'
p1723
(dp1724
g6
(dp1725
g8
S'_usr_local_lib_python2_7_dist-packages_tornado-3_2-py2_7-linux-i686_egg_tornado_websocket.html'
p1726
sg10
S'/usr/local/lib/python2.7/dist-packages/tornado-3.2-py2.7-linux-i686.egg/tornado/websocket'
p1727
sg12
g13
(g14
g15
NtRp1728
(dp1729
g18
I1
sg19
I0
sg20
I495
sg21
I0
sg22
I0
sg23
I281
sg24
I0
sbssg25
S'\xa0-\x14p\x8c\xd6,\x8a\xb5W\xfc\xbe\x1cL\xc9\xce'
p1730
ssS'_usr_share_pyshared_simplejson_decoder'
p1731
(dp1732
g6
(dp1733
g8
S'_usr_share_pyshared_simplejson_decoder.html'
p1734
sg10
S'/usr/share/pyshared/simplejson/decoder'
p1735
sg12
g13
(g14
g15
NtRp1736
(dp1737
g18
I1
sg19
I0
sg20
I238
sg21
I0
sg22
I0
sg23
I183
sg24
I0
sbssg25
S'\xe9N\xa78GV\x1d\tF\xde\xaeic\xbdD\xac'
p1738
ssS'IPython_nbformat_v1_nbbase'
p1739
(dp1740
g6
(dp1741
g8
S'IPython_nbformat_v1_nbbase.html'
p1742
sg10
S'IPython/nbformat/v1/nbbase'
p1743
sg12
g13
(g14
g15
NtRp1744
(dp1745
g18
I1
sg19
I0
sg20
I35
sg21
I0
sg22
I0
sg23
I25
sg24
I0
sbssg25
S'\xba\xe4\xc2.\x827\xb2\x8b\x81\x19*\x0f\x90hF\x8d'
p1746
ssS'_usr_local_lib_python2_7_dist-packages_numpy-1_8_1-py2_7-linux-i686_egg_numpy_ma_core'
p1747
(dp1748
g6
(dp1749
g8
S'_usr_local_lib_python2_7_dist-packages_numpy-1_8_1-py2_7-linux-i686_egg_numpy_ma_core.html'
p1750
sg10
S'/usr/local/lib/python2.7/dist-packages/numpy-1.8.1-py2.7-linux-i686.egg/numpy/ma/core'
p1751
sg12
g13
(g14
g15
NtRp1752
(dp1753
g18
I1
sg19
I0
sg20
I2324
sg21
I0
sg22
I0
sg23
I1795
sg24
I0
sbssg25
S'\xef\xc8\xa9\x8e\x17\x03\x81n\xfdJ\xfc\xffAh\xd7\xf3'
p1754
ssS'IPython_utils_terminal'
p1755
(dp1756
g6
(dp1757
g8
S'IPython_utils_terminal.html'
p1758
sg10
S'IPython/utils/terminal'
p1759
sg12
g13
(g14
g15
NtRp1760
(dp1761
g18
I1
sg19
I0
sg20
I67
sg21
I0
sg22
I0
sg23
I43
sg24
I0
sbssg25
S'.\xe3~\xaa\x08?\xb8\xb1G\x88\xe6\xf4t\x9b\xa2\xe2'
p1762
ssS'_usr_local_lib_python2_7_dist-packages_numpy-1_8_1-py2_7-linux-i686_egg_numpy_lib___init__'
p1763
(dp1764
g6
(dp1765
g8
S'_usr_local_lib_python2_7_dist-packages_numpy-1_8_1-py2_7-linux-i686_egg_numpy_lib___init__.html'
p1766
sg10
S'/usr/local/lib/python2.7/dist-packages/numpy-1.8.1-py2.7-linux-i686.egg/numpy/lib/__init__'
p1767
sg12
g13
(g14
g15
NtRp1768
(dp1769
g18
I1
sg19
I0
sg20
I38
sg21
I0
sg22
I0
sg23
I0
sg24
I0
sbssg25
S'PM\xbe\xe6\n\x06r\x9d\xb80\xfe\x93\xdb\x94\x88\x18'
p1770
ssS'IPython_core_inputtransformer'
p1771
(dp1772
g6
(dp1773
g8
S'IPython_core_inputtransformer.html'
p1774
sg10
S'IPython/core/inputtransformer'
p1775
sg12
g13
(g14
g15
NtRp1776
(dp1777
g18
I1
sg19
I0
sg20
I267
sg21
I0
sg22
I0
sg23
I189
sg24
I0
sbssg25
S'j\x01WQ\xb7\x1f\xb5{B\x0f\xe9\x88r\xb3\xf3\x00'
p1778
ssS'_usr_local_lib_python2_7_dist-packages_tornado-3_2-py2_7-linux-i686_egg_tornado_netutil'
p1779
(dp1780
g6
(dp1781
g8
S'_usr_local_lib_python2_7_dist-packages_tornado-3_2-py2_7-linux-i686_egg_tornado_netutil.html'
p1782
sg10
S'/usr/local/lib/python2.7/dist-packages/tornado-3.2-py2.7-linux-i686.egg/tornado/netutil'
p1783
sg12
g13
(g14
g15
NtRp1784
(dp1785
g18
I1
sg19
I0
sg20
I170
sg21
I0
sg22
I0
sg23
I97
sg24
I0
sbssg25
S'\x92G\x7ff\xd5\xe4\x8aM\x07\x9b\t\x19\xc6\xd6\xd5A'
p1786
ssS'IPython_lib_backgroundjobs'
p1787
(dp1788
g6
(dp1789
g8
S'IPython_lib_backgroundjobs.html'
p1790
sg10
S'IPython/lib/backgroundjobs'
p1791
sg12
g13
(g14
g15
NtRp1792
(dp1793
g18
I1
sg19
I0
sg20
I206
sg21
I0
sg22
I0
sg23
I162
sg24
I0
sbssg25
S'\x99\xda\x9e\nj\x8a\xa7\xa077G\x0f\x9d\x1e\xaa4'
p1794
ssS'_usr_local_lib_python2_7_dist-packages_numpy-1_8_1-py2_7-linux-i686_egg_numpy_polynomial_laguerre'
p1795
(dp1796
g6
(dp1797
g8
S'_usr_local_lib_python2_7_dist-packages_numpy-1_8_1-py2_7-linux-i686_egg_numpy_polynomial_laguerre.html'
p1798
sg10
S'/usr/local/lib/python2.7/dist-packages/numpy-1.8.1-py2.7-linux-i686.egg/numpy/polynomial/laguerre'
p1799
sg12
g13
(g14
g15
NtRp1800
(dp1801
g18
I1
sg19
I0
sg20
I379
sg21
I0
sg22
I0
sg23
I341
sg24
I0
sbssg25
S'<n\x15\xc6\x1c\x98\xe5\x9f\xf0\xebE\xab\x92\xe8w]'
p1802
ssS'IPython_kernel_multikernelmanager'
p1803
(dp1804
g6
(dp1805
g8
S'IPython_kernel_multikernelmanager.html'
p1806
sg10
S'IPython/kernel/multikernelmanager'
p1807
sg12
g13
(g14
g15
NtRp1808
(dp1809
g18
I1
sg19
I0
sg20
I80
sg21
I0
sg22
I0
sg23
I8
sg24
I0
sbssg25
S'G9\xfd\x82n\xec\x87Z_.\xe2Q\x88\xb5;\xc0'
p1810
ssS'_usr_share_pyshared_zmq_eventloop_stack_context'
p1811
(dp1812
g6
(dp1813
g8
S'_usr_share_pyshared_zmq_eventloop_stack_context.html'
p1814
sg10
S'/usr/share/pyshared/zmq/eventloop/stack_context'
p1815
sg12
g13
(g14
g15
NtRp1816
(dp1817
g18
I1
sg19
I0
sg20
I93
sg21
I0
sg22
I0
sg23
I58
sg24
I0
sbssg25
S'\x84\xec\xaa\xeb\xb6HM\x82\xcb\x8e\x86\xa6\xe7\n\xe3\xdd'
p1818
ssS'IPython_terminal_ipapp'
p1819
(dp1820
g6
(dp1821
g8
S'IPython_terminal_ipapp.html'
p1822
sg10
S'IPython/terminal/ipapp'
p1823
sg12
g13
(g14
g15
NtRp1824
(dp1825
g18
I1
sg19
I0
sg20
I159
sg21
I0
sg22
I0
sg23
I58
sg24
I0
sbssg25
S'\xdd\xac\x8b\xd2\xad_\xba\xa5K\xdb\xd4c\xf8gC!'
p1826
ssS'IPython_html_services_notebooks_filenbmanager'
p1827
(dp1828
g6
(dp1829
g8
S'IPython_html_services_notebooks_filenbmanager.html'
p1830
sg10
S'IPython/html/services/notebooks/filenbmanager'
p1831
sg12
g13
(g14
g15
NtRp1832
(dp1833
g18
I1
sg19
I0
sg20
I220
sg21
I0
sg22
I0
sg23
I92
sg24
I0
sbssg25
S'_\xd3]{\x0f\xcf\xder\x95\x1a\xb0a\xc0\x9d3['
p1834
ssS'_usr_share_pyshared_zmq_eventloop_ioloop'
p1835
(dp1836
g6
(dp1837
g8
S'_usr_share_pyshared_zmq_eventloop_ioloop.html'
p1838
sg10
S'/usr/share/pyshared/zmq/eventloop/ioloop'
p1839
sg12
g13
(g14
g15
NtRp1840
(dp1841
g18
I1
sg19
I0
sg20
I275
sg21
I0
sg22
I0
sg23
I74
sg24
I0
sbssg25
S'\xf5I\x9c\x9d\xbe8\xd9\x99\x9e\xd1\xa3\xd1\x1d>\x85"'
p1842
ssS'IPython_kernel_inprocess_socket'
p1843
(dp1844
g6
(dp1845
g8
S'IPython_kernel_inprocess_socket.html'
p1846
sg10
S'IPython/kernel/inprocess/socket'
p1847
sg12
g13
(g14
g15
NtRp1848
(dp1849
g18
I1
sg19
I0
sg20
I26
sg21
I0
sg22
I0
sg23
I6
sg24
I0
sbssg25
S'I\xf8\xeb3N\x0cC\rE}\xdf%\x0f\xd4\xbe\xc5'
p1850
ssS'IPython_nbformat_v3_nbbase'
p1851
(dp1852
g6
(dp1853
g8
S'IPython_nbformat_v3_nbbase.html'
p1854
sg10
S'IPython/nbformat/v3/nbbase'
p1855
sg12
g13
(g14
g15
NtRp1856
(dp1857
g18
I1
sg19
I0
sg20
I141
sg21
I0
sg22
I0
sg23
I98
sg24
I0
sbssg25
S'6\xba\xcd?\xa94\xd4\xb4\xb59<*\xf8\x98d\xf8'
p1858
ssS'IPython_parallel___init__'
p1859
(dp1860
g6
(dp1861
g8
S'IPython_parallel___init__.html'
p1862
sg10
S'IPython/parallel/__init__'
p1863
sg12
g13
(g14
g15
NtRp1864
(dp1865
g18
I1
sg19
I0
sg20
I27
sg21
I0
sg22
I0
sg23
I11
sg24
I0
sbssg25
S'>\xc9\x0e\xd1F\xf6f|\xd7u\xad\r$\xce\x9cT'
p1866
ssS'_usr_local_lib_python2_7_dist-packages_jinja2_exceptions'
p1867
(dp1868
g6
(dp1869
g8
S'_usr_local_lib_python2_7_dist-packages_jinja2_exceptions.html'
p1870
sg10
S'/usr/local/lib/python2.7/dist-packages/jinja2/exceptions'
p1871
sg12
g13
(g14
g15
NtRp1872
(dp1873
g18
I1
sg19
I0
sg20
I70
sg21
I0
sg22
I0
sg23
I47
sg24
I0
sbssg25
S'\xf3z\xf9\xb0i}\xb8\xf8a\x05\xda\n?\x1c\xfb\x1d'
p1874
ssS'IPython_utils_wildcard'
p1875
(dp1876
g6
(dp1877
g8
S'IPython_utils_wildcard.html'
p1878
sg10
S'IPython/utils/wildcard'
p1879
sg12
g13
(g14
g15
NtRp1880
(dp1881
g18
I1
sg19
I0
sg20
I52
sg21
I0
sg22
I0
sg23
I31
sg24
I0
sbssg25
S'\xcf\xff\xe8!\xbc\xfc\x103P\xcd\x8a)\xa0\x87\x02P'
p1882
ssS'IPython_html_services_sessions___init__'
p1883
(dp1884
g6
(dp1885
g8
S'IPython_html_services_sessions___init__.html'
p1886
sg10
S'IPython/html/services/sessions/__init__'
p1887
sg12
g13
(g14
g15
NtRp1888
(dp1889
g18
I1
sg19
I0
sg20
I0
sg21
I0
sg22
I0
sg23
I0
sg24
I0
sbssg25
S'\xca\xf5\x9f\x7f\x88\xdfa\x831|T\x1d\xbc}\xa5v'
p1890
ssS'IPython_html_log'
p1891
(dp1892
g6
(dp1893
g8
S'IPython_html_log.html'
p1894
sg10
S'IPython/html/log'
p1895
sg12
g13
(g14
g15
NtRp1896
(dp1897
g18
I1
sg19
I0
sg20
I24
sg21
I0
sg22
I0
sg23
I8
sg24
I0
sbssg25
S'\xf7W\xde\xa5B\xfe"\x9e\x93\xc2\xf0\x11p\'\xff\xaa'
p1898
ssS'_usr_local_lib_python2_7_dist-packages_numpy-1_8_1-py2_7-linux-i686_egg_numpy_lib_twodim_base'
p1899
(dp1900
g6
(dp1901
g8
S'_usr_local_lib_python2_7_dist-packages_numpy-1_8_1-py2_7-linux-i686_egg_numpy_lib_twodim_base.html'
p1902
sg10
S'/usr/local/lib/python2.7/dist-packages/numpy-1.8.1-py2.7-linux-i686.egg/numpy/lib/twodim_base'
p1903
sg12
g13
(g14
g15
NtRp1904
(dp1905
g18
I1
sg19
I0
sg20
I116
sg21
I0
sg22
I0
sg23
I97
sg24
I0
sbssg25
S'\xa5\xbc\x86\xb1\x86\x00\xb2\xc5>7/A\x90\x97E\xf4'
p1906
ssS'IPython_parallel_client_view'
p1907
(dp1908
g6
(dp1909
g8
S'IPython_parallel_client_view.html'
p1910
sg10
S'IPython/parallel/client/view'
p1911
sg12
g13
(g14
g15
NtRp1912
(dp1913
g18
I1
sg19
I0
sg20
I454
sg21
I0
sg22
I0
sg23
I348
sg24
I0
sbssg25
S't2\x12\x96Zg\x03I\xdb\x1b\r\x84\xd5cW\xdb'
p1914
ssS'IPython_parallel_client_remotefunction'
p1915
(dp1916
g6
(dp1917
g8
S'IPython_parallel_client_remotefunction.html'
p1918
sg10
S'IPython/parallel/client/remotefunction'
p1919
sg12
g13
(g14
g15
NtRp1920
(dp1921
g18
I1
sg19
I0
sg20
I129
sg21
I0
sg22
I0
sg23
I100
sg24
I0
sbssg25
S' \x8eth\xe1\x87\xb1\xdb\xe7\x98\xda"*\x15\xd9\x97'
p1922
ssS'IPython_nbformat_v3_nbpy'
p1923
(dp1924
g6
(dp1925
g8
S'IPython_nbformat_v3_nbpy.html'
p1926
sg10
S'IPython/nbformat/v3/nbpy'
p1927
sg12
g13
(g14
g15
NtRp1928
(dp1929
g18
I1
sg19
I0
sg20
I156
sg21
I0
sg22
I0
sg23
I135
sg24
I0
sbssg25
S'h\xac\xe8\the\x9dD\x0e~\xb2\xa1\xbf\xe99\xb4'
p1930
ssS'IPython_html_base___init__'
p1931
(dp1932
g6
(dp1933
g8
S'IPython_html_base___init__.html'
p1934
sg10
S'IPython/html/base/__init__'
p1935
sg12
g13
(g14
g15
NtRp1936
(dp1937
g18
I1
sg19
I0
sg20
I0
sg21
I0
sg22
I0
sg23
I0
sg24
I0
sbssg25
S'\xca\xf5\x9f\x7f\x88\xdfa\x831|T\x1d\xbc}\xa5v'
p1938
ssS'_usr_local_lib_python2_7_dist-packages_numpy-1_8_1-py2_7-linux-i686_egg_numpy_lib_npyio'
p1939
(dp1940
g6
(dp1941
g8
S'_usr_local_lib_python2_7_dist-packages_numpy-1_8_1-py2_7-linux-i686_egg_numpy_lib_npyio.html'
p1942
sg10
S'/usr/local/lib/python2.7/dist-packages/numpy-1.8.1-py2.7-linux-i686.egg/numpy/lib/npyio'
p1943
sg12
g13
(g14
g15
NtRp1944
(dp1945
g18
I1
sg19
I0
sg20
I729
sg21
I0
sg22
I0
sg23
I676
sg24
I0
sbssg25
S';\x12\xa9\xd1\x87Q\x86\x1c\x1cT\x92!\x8c\x14ac'
p1946
ssS'_usr_local_lib_python2_7_dist-packages_numpy-1_8_1-py2_7-linux-i686_egg_numpy_core_defchararray'
p1947
(dp1948
g6
(dp1949
g8
S'_usr_local_lib_python2_7_dist-packages_numpy-1_8_1-py2_7-linux-i686_egg_numpy_core_defchararray.html'
p1950
sg10
S'/usr/local/lib/python2.7/dist-packages/numpy-1.8.1-py2.7-linux-i686.egg/numpy/core/defchararray'
p1951
sg12
g13
(g14
g15
NtRp1952
(dp1953
g18
I1
sg19
I0
sg20
I364
sg21
I0
sg22
I0
sg23
I238
sg24
I0
sbssg25
S'Cm?\xf0Y\xa1\x90\x8c $1\xb9\xd7\x00\xd1{'
p1954
ssS'IPython_kernel_launcher'
p1955
(dp1956
g6
(dp1957
g8
S'IPython_kernel_launcher.html'
p1958
sg10
S'IPython/kernel/launcher'
p1959
sg12
g13
(g14
g15
NtRp1960
(dp1961
g18
I1
sg19
I0
sg20
I91
sg21
I0
sg22
I0
sg23
I53
sg24
I0
sbssg25
S'\xf9\xf7\xf8\x9c\r\xce=\x00<\x84[\x98\xa2\x1b\x92k'
p1962
ssS'IPython_core_compilerop'
p1963
(dp1964
g6
(dp1965
g8
S'IPython_core_compilerop.html'
p1966
sg10
S'IPython/core/compilerop'
p1967
sg12
g13
(g14
g15
NtRp1968
(dp1969
g18
I1
sg19
I0
sg20
I36
sg21
I0
sg22
I0
sg23
I18
sg24
I0
sbssg25
S'I\x9c\xb4\xa6\x12*a\x80\xd0\xef\x97o\x9dp@\x05'
p1970
ssS'IPython_utils_dir2'
p1971
(dp1972
g6
(dp1973
g8
S'IPython_utils_dir2.html'
p1974
sg10
S'IPython/utils/dir2'
p1975
sg12
g13
(g14
g15
NtRp1976
(dp1977
g18
I1
sg19
I0
sg20
I31
sg21
I0
sg22
I0
sg23
I26
sg24
I0
sbssg25
S'\xa7\x1fE1\xeeh\xea\xec\xb2\x7f>\x801\t\xdd\x8b'
p1978
ssS'_usr_local_lib_python2_7_dist-packages_numpy-1_8_1-py2_7-linux-i686_egg_numpy_fft_fftpack'
p1979
(dp1980
g6
(dp1981
g8
S'_usr_local_lib_python2_7_dist-packages_numpy-1_8_1-py2_7-linux-i686_egg_numpy_fft_fftpack.html'
p1982
sg10
S'/usr/local/lib/python2.7/dist-packages/numpy-1.8.1-py2.7-linux-i686.egg/numpy/fft/fftpack'
p1983
sg12
g13
(g14
g15
NtRp1984
(dp1985
g18
I1
sg19
I0
sg20
I109
sg21
I0
sg22
I0
sg23
I86
sg24
I0
sbssg25
S'6\xc6JQ\x8a\xdae\xa1\xbbd\x95\xf4\x06#\x9f\x9c'
p1986
ssS'IPython_kernel_zmq_parentpoller'
p1987
(dp1988
g6
(dp1989
g8
S'IPython_kernel_zmq_parentpoller.html'
p1990
sg10
S'IPython/kernel/zmq/parentpoller'
p1991
sg12
g13
(g14
g15
NtRp1992
(dp1993
g18
I1
sg19
I0
sg20
I71
sg21
I0
sg22
I0
sg23
I52
sg24
I0
sbssg25
S'\x85\x87a\xf5\xc4uj\x13{\x175\x02\x95=d\xea'
p1994
ssS'IPython_kernel_inprocess___init__'
p1995
(dp1996
g6
(dp1997
g8
S'IPython_kernel_inprocess___init__.html'
p1998
sg10
S'IPython/kernel/inprocess/__init__'
p1999
sg12
g13
(g14
g15
NtRp2000
(dp2001
g18
I1
sg19
I0
sg20
I4
sg21
I0
sg22
I0
sg23
I0
sg24
I0
sbssg25
S'!!,\xbfX\xe4g@\x8ebI\xe3\x1eQd\x1b'
p2002
ssS'_usr_share_pyshared_zmq_eventloop___init__'
p2003
(dp2004
g6
(dp2005
g8
S'_usr_share_pyshared_zmq_eventloop___init__.html'
p2006
sg10
S'/usr/share/pyshared/zmq/eventloop/__init__'
p2007
sg12
g13
(g14
g15
NtRp2008
(dp2009
g18
I1
sg19
I0
sg20
I2
sg21
I0
sg22
I0
sg23
I0
sg24
I0
sbssg25
S'*\x85p\x8c\xe2x/C]\x8d+\xfc\xad\xc4\x85?'
p2010
ssS'IPython_kernel_inprocess_manager'
p2011
(dp2012
g6
(dp2013
g8
S'IPython_kernel_inprocess_manager.html'
p2014
sg10
S'IPython/kernel/inprocess/manager'
p2015
sg12
g13
(g14
g15
NtRp2016
(dp2017
g18
I1
sg19
I0
sg20
I28
sg21
I0
sg22
I0
sg23
I12
sg24
I0
sbssg25
S"\x08\xab\xad\xb2V\xa7R\x89\xf8\x12\xad w\x02'I"
p2018
ssS'IPython_nbformat_v2___init__'
p2019
(dp2020
g6
(dp2021
g8
S'IPython_nbformat_v2___init__.html'
p2022
sg10
S'IPython/nbformat/v2/__init__'
p2023
sg12
g13
(g14
g15
NtRp2024
(dp2025
g18
I1
sg19
I0
sg20
I22
sg21
I0
sg22
I0
sg23
I10
sg24
I0
sbssg25
S'T\xb9p\xa8\xa2z0\x9f\x83\x8c\xe7 \x10\x93\xc5\x8b'
p2026
ssS'_usr_local_lib_python2_7_dist-packages_numpy-1_8_1-py2_7-linux-i686_egg_numpy_compat_py3k'
p2027
(dp2028
g6
(dp2029
g8
S'_usr_local_lib_python2_7_dist-packages_numpy-1_8_1-py2_7-linux-i686_egg_numpy_compat_py3k.html'
p2030
sg10
S'/usr/local/lib/python2.7/dist-packages/numpy-1.8.1-py2.7-linux-i686.egg/numpy/compat/py3k'
p2031
sg12
g13
(g14
g15
NtRp2032
(dp2033
g18
I1
sg19
I0
sg20
I57
sg21
I0
sg22
I0
sg23
I38
sg24
I0
sbssg25
S'\xfc\x1a\xc6\x0f\xe3\xfa\x95\xd5ea\x02\xaf\xa7\x10\x17W'
p2034
ssS'_usr_local_lib_python2_7_dist-packages_numpy-1_8_1-py2_7-linux-i686_egg_numpy_core_fromnumeric'
p2035
(dp2036
g6
(dp2037
g8
S'_usr_local_lib_python2_7_dist-packages_numpy-1_8_1-py2_7-linux-i686_egg_numpy_core_fromnumeric.html'
p2038
sg10
S'/usr/local/lib/python2.7/dist-packages/numpy-1.8.1-py2.7-linux-i686.egg/numpy/core/fromnumeric'
p2039
sg12
g13
(g14
g15
NtRp2040
(dp2041
g18
I1
sg19
I0
sg20
I310
sg21
I0
sg22
I0
sg23
I252
sg24
I0
sbssg25
S'\xd6\xdc3\xc6H\x06\x85\xb4\xef\x1f\x8fL\xfc\xb7\xef\xe7'
p2042
ssS'IPython_external_ssh___init__'
p2043
(dp2044
g6
(dp2045
g8
S'IPython_external_ssh___init__.html'
p2046
sg10
S'IPython/external/ssh/__init__'
p2047
sg12
g13
(g14
g15
NtRp2048
(dp2049
g18
I1
sg19
I0
sg20
I0
sg21
I0
sg22
I0
sg23
I0
sg24
I0
sbssg25
S'\xca\xf5\x9f\x7f\x88\xdfa\x831|T\x1d\xbc}\xa5v'
p2050
ssS'IPython_kernel_clientabc'
p2051
(dp2052
g6
(dp2053
g8
S'IPython_kernel_clientabc.html'
p2054
sg10
S'IPython/kernel/clientabc'
p2055
sg12
g13
(g14
g15
NtRp2056
(dp2057
g18
I1
sg19
I0
sg20
I28
sg21
I0
sg22
I0
sg23
I12
sg24
I0
sbssg25
S'>b\x8b\xf6\xbf\xe6dt\xf9\x99\xd8\xff\xefP\x85\x18'
p2058
ssS'IPython_nbformat_v3___init__'
p2059
(dp2060
g6
(dp2061
g8
S'IPython_nbformat_v3___init__.html'
p2062
sg10
S'IPython/nbformat/v3/__init__'
p2063
sg12
g13
(g14
g15
NtRp2064
(dp2065
g18
I1
sg19
I0
sg20
I19
sg21
I0
sg22
I0
sg23
I10
sg24
I0
sbssg25
S'&\tT\x1f\xab\xda#}\x16\xef\xf4\x00\x07\xc7\xf2\xb9'
p2066
ssS'_usr_local_lib_python2_7_dist-packages_numpy-1_8_1-py2_7-linux-i686_egg_numpy_linalg___init__'
p2067
(dp2068
g6
(dp2069
g8
S'_usr_local_lib_python2_7_dist-packages_numpy-1_8_1-py2_7-linux-i686_egg_numpy_linalg___init__.html'
p2070
sg10
S'/usr/local/lib/python2.7/dist-packages/numpy-1.8.1-py2.7-linux-i686.egg/numpy/linalg/__init__'
p2071
sg12
g13
(g14
g15
NtRp2072
(dp2073
g18
I1
sg19
I0
sg20
I6
sg21
I0
sg22
I0
sg23
I0
sg24
I0
sbssg25
S'\xd9\r{X\x17\x0c%f\xb2\xee\xf9`\x19\xe2-O'
p2074
ssS'IPython_core_magics_config'
p2075
(dp2076
g6
(dp2077
g8
S'IPython_core_magics_config.html'
p2078
sg10
S'IPython/core/magics/config'
p2079
sg12
g13
(g14
g15
NtRp2080
(dp2081
g18
I1
sg19
I0
sg20
I46
sg21
I0
sg22
I0
sg23
I36
sg24
I0
sbssg25
S'V\x08\x89W\xb2mNQ\x11\xd9\xfb\xde\x93\xb0\xf7u'
p2082
ssS'IPython_kernel_zmq___init__'
p2083
(dp2084
g6
(dp2085
g8
S'IPython_kernel_zmq___init__.html'
p2086
sg10
S'IPython/kernel/zmq/__init__'
p2087
sg12
g13
(g14
g15
NtRp2088
(dp2089
g18
I1
sg19
I0
sg20
I3
sg21
I0
sg22
I0
sg23
I0
sg24
I0
sbssg25
S'\xebt\xe2\xf5\xf3lP\x076\x8e\x87\xcaM\xad\x8f\xae'
p2090
ssS'IPython_core_error'
p2091
(dp2092
g6
(dp2093
g8
S'IPython_core_error.html'
p2094
sg10
S'IPython/core/error'
p2095
sg12
g13
(g14
g15
NtRp2096
(dp2097
g18
I1
sg19
I0
sg20
I6
sg21
I0
sg22
I0
sg23
I0
sg24
I0
sbssg25
S'\x04P\x10\xb2\x9c\xe9QN\xcd\xf4\x1c\xb4\x8ay\xff\xb8'
p2098
ssS'IPython_core_macro'
p2099
(dp2100
g6
(dp2101
g8
S'IPython_core_macro.html'
p2102
sg10
S'IPython/core/macro'
p2103
sg12
g13
(g14
g15
NtRp2104
(dp2105
g18
I1
sg19
I0
sg20
I31
sg21
I0
sg22
I0
sg23
I20
sg24
I0
sbssg25
S"dH\xba\xfec\xfcS\xabt='Z\x85r U"
p2106
ssS'_usr_local_lib_python2_7_dist-packages_numpy-1_8_1-py2_7-linux-i686_egg_numpy_polynomial_polyutils'
p2107
(dp2108
g6
(dp2109
g8
S'_usr_local_lib_python2_7_dist-packages_numpy-1_8_1-py2_7-linux-i686_egg_numpy_polynomial_polyutils.html'
p2110
sg10
S'/usr/local/lib/python2.7/dist-packages/numpy-1.8.1-py2.7-linux-i686.egg/numpy/polynomial/polyutils'
p2111
sg12
g13
(g14
g15
NtRp2112
(dp2113
g18
I1
sg19
I0
sg20
I67
sg21
I0
sg22
I0
sg23
I48
sg24
I0
sbssg25
S'\xf9\xd0\xda#\x93\xcd\xcf\x91Z\xbd\xe5\xd9}\x8e\xe7\xf7'
p2114
ssS'IPython_parallel_client___init__'
p2115
(dp2116
g6
(dp2117
g8
S'IPython_parallel_client___init__.html'
p2118
sg10
S'IPython/parallel/client/__init__'
p2119
sg12
g13
(g14
g15
NtRp2120
(dp2121
g18
I1
sg19
I0
sg20
I0
sg21
I0
sg22
I0
sg23
I0
sg24
I0
sbssg25
S'\xca\xf5\x9f\x7f\x88\xdfa\x831|T\x1d\xbc}\xa5v'
p2122
ssS'IPython_parallel_client_asyncresult'
p2123
(dp2124
g6
(dp2125
g8
S'IPython_parallel_client_asyncresult.html'
p2126
sg10
S'IPython/parallel/client/asyncresult'
p2127
sg12
g13
(g14
g15
NtRp2128
(dp2129
g18
I1
sg19
I0
sg20
I369
sg21
I0
sg22
I0
sg23
I307
sg24
I0
sbssg25
S'\xa7\xb4\xc6zdof\xdb\xb7\x1b\x9b\x89\xc8\xd1\x03I'
p2130
ssS'IPython_consoleapp'
p2131
(dp2132
g6
(dp2133
g8
S'IPython_consoleapp.html'
p2134
sg10
S'IPython/consoleapp'
p2135
sg12
g13
(g14
g15
NtRp2136
(dp2137
g18
I1
sg19
I0
sg20
I159
sg21
I0
sg22
I0
sg23
I101
sg24
I0
sbssg25
S'\x16T\x98\xbb\x0b\x18\xdet\x89a\x17O\x9c*\xcb\xb0'
p2138
ssS'IPython_kernel_zmq_log'
p2139
(dp2140
g6
(dp2141
g8
S'IPython_kernel_zmq_log.html'
p2142
sg10
S'IPython/kernel/zmq/log'
p2143
sg12
g13
(g14
g15
NtRp2144
(dp2145
g18
I1
sg19
I0
sg20
I11
sg21
I0
sg22
I0
sg23
I5
sg24
I0
sbssg25
S'\x04\xb4O\xd3\xd2P\xf9b\xf4+\x05~\xa4\x86\x7f\x82'
p2146
ssS'IPython_nbformat_v2_nbjson'
p2147
(dp2148
g6
(dp2149
g8
S'IPython_nbformat_v2_nbjson.html'
p2150
sg10
S'IPython/nbformat/v2/nbjson'
p2151
sg12
g13
(g14
g15
NtRp2152
(dp2153
g18
I1
sg19
I0
sg20
I31
sg21
I0
sg22
I0
sg23
I13
sg24
I0
sbssg25
S'uq\xd93W\x10\xf0?\xe9\xd67|\x81\xcb\x10\xbe'
p2154
ssS'_usr_share_pyshared_decorator'
p2155
(dp2156
g6
(dp2157
g8
S'_usr_share_pyshared_decorator.html'
p2158
sg10
S'/usr/share/pyshared/decorator'
p2159
sg12
g13
(g14
g15
NtRp2160
(dp2161
g18
I1
sg19
I0
sg20
I130
sg21
I0
sg22
I0
sg23
I24
sg24
I0
sbssg25
S'\x86\xeb\xc4\x8cz9\xba=\xe5\xf8${\xf8\x92,F'
p2162
ssS'_usr_local_lib_python2_7_dist-packages_tornado-3_2-py2_7-linux-i686_egg_tornado_stack_context'
p2163
(dp2164
g6
(dp2165
g8
S'_usr_local_lib_python2_7_dist-packages_tornado-3_2-py2_7-linux-i686_egg_tornado_stack_context.html'
p2166
sg10
S'/usr/local/lib/python2.7/dist-packages/tornado-3.2-py2.7-linux-i686.egg/tornado/stack_context'
p2167
sg12
g13
(g14
g15
NtRp2168
(dp2169
g18
I1
sg19
I0
sg20
I146
sg21
I0
sg22
I0
sg23
I80
sg24
I0
sbssg25
S'S\xdef#\x7f\xcc\xc6\x1e\x17%>e\x9f\xc5\xe3%'
p2170
ssS'IPython_kernel_blocking_client'
p2171
(dp2172
g6
(dp2173
g8
S'IPython_kernel_blocking_client.html'
p2174
sg10
S'IPython/kernel/blocking/client'
p2175
sg12
g13
(g14
g15
NtRp2176
(dp2177
g18
I1
sg19
I0
sg20
I8
sg21
I0
sg22
I0
sg23
I0
sg24
I0
sbssg25
S'\xb1<\x16\xdaR\x14\xbaB\x18\xf3\xb2m\xf9\xc0\x17\xf1'
p2178
ssS'IPython_utils_capture'
p2179
(dp2180
g6
(dp2181
g8
S'IPython_utils_capture.html'
p2182
sg10
S'IPython/utils/capture'
p2183
sg12
g13
(g14
g15
NtRp2184
(dp2185
g18
I1
sg19
I0
sg20
I97
sg21
I0
sg22
I0
sg23
I65
sg24
I0
sbssg25
S'\x83K\x12\xb0\xe8\xd24\xf8*\xf6C^_j\xabD'
p2186
ssS'_usr_local_lib_python2_7_dist-packages_backports_ssl_match_hostname-3_4_0_2-py2_7_egg_backports_ssl_match_hostname___init__'
p2187
(dp2188
g6
(dp2189
g8
S'_usr_local_lib_python2_7_dist-packages_backports_ssl_match_hostname-3_4_0_2-py2_7_egg_backports_ssl_match_hostname___init__.html'
p2190
sg10
S'/usr/local/lib/python2.7/dist-packages/backports.ssl_match_hostname-3.4.0.2-py2.7.egg/backports/ssl_match_hostname/__init__'
p2191
sg12
g13
(g14
g15
NtRp2192
(dp2193
g18
I1
sg19
I0
sg20
I47
sg21
I0
sg22
I0
sg23
I41
sg24
I0
sbssg25
S's%\xc6\x98v)<\x0c\xd2\xc8\xbdk\xb9\x03\xfdN'
p2194
ssS'IPython_core_profileapp'
p2195
(dp2196
g6
(dp2197
g8
S'IPython_core_profileapp.html'
p2198
sg10
S'IPython/core/profileapp'
p2199
sg12
g13
(g14
g15
NtRp2200
(dp2201
g18
I1
sg19
I0
sg20
I157
sg21
I0
sg22
I0
sg23
I91
sg24
I0
sbssg25
S"1\x13\x93\x8a'\xf4\xa3`\xb2I\x87?/\xca\xc2r"
p2202
ssS'IPython_kernel_ioloop_restarter'
p2203
(dp2204
g6
(dp2205
g8
S'IPython_kernel_ioloop_restarter.html'
p2206
sg10
S'IPython/kernel/ioloop/restarter'
p2207
sg12
g13
(g14
g15
NtRp2208
(dp2209
g18
I1
sg19
I0
sg20
I17
sg21
I0
sg22
I0
sg23
I0
sg24
I0
sbssg25
S')\xd7w\x104>\xcf\xdc>v\xe4\xeb\xae\xef^('
p2210
ssS'IPython_utils_path'
p2211
(dp2212
g6
(dp2213
g8
S'IPython_utils_path.html'
p2214
sg10
S'IPython/utils/path'
p2215
sg12
g13
(g14
g15
NtRp2216
(dp2217
g18
I1
sg19
I0
sg20
I243
sg21
I0
sg22
I0
sg23
I154
sg24
I0
sbssg25
S'\xac`\xdc\xa8\x9d\xe8P\xcaw\x0f);m"\x06\xd2'
p2218
ssS'IPython_extensions___init__'
p2219
(dp2220
g6
(dp2221
g8
S'IPython_extensions___init__.html'
p2222
sg10
S'IPython/extensions/__init__'
p2223
sg12
g13
(g14
g15
NtRp2224
(dp2225
g18
I1
sg19
I0
sg20
I1
sg21
I0
sg22
I0
sg23
I0
sg24
I0
sbssg25
S'\x8d\xf4N\x91\xad\n\x99\xc4CW\xbd6\xb0\xcb\x16\xd5'
p2226
ssS'IPython_external_pexpect___init__'
p2227
(dp2228
g6
(dp2229
g8
S'IPython_external_pexpect___init__.html'
p2230
sg10
S'IPython/external/pexpect/__init__'
p2231
sg12
g13
(g14
g15
NtRp2232
(dp2233
g18
I1
sg19
I0
sg20
I5
sg21
I0
sg22
I0
sg23
I2
sg24
I0
sbssg25
S'\x08\x01\xb9\x99\xdac\xf4\xfd\xb1\x8d\xfc7\xfb\xe4[]'
p2234
ssS'_usr_local_lib_python2_7_dist-packages_numpy-1_8_1-py2_7-linux-i686_egg_numpy_core_machar'
p2235
(dp2236
g6
(dp2237
g8
S'_usr_local_lib_python2_7_dist-packages_numpy-1_8_1-py2_7-linux-i686_egg_numpy_core_machar.html'
p2238
sg10
S'/usr/local/lib/python2.7/dist-packages/numpy-1.8.1-py2.7-linux-i686.egg/numpy/core/machar'
p2239
sg12
g13
(g14
g15
NtRp2240
(dp2241
g18
I1
sg19
I0
sg20
I186
sg21
I0
sg22
I0
sg23
I177
sg24
I0
sbssg25
S'\xa29\xf0H\x8f\x1cl\xb7\xbe1IHW\x97\xacY'
p2242
ssS'_usr_share_pyshared_zmq_utils_jsonapi'
p2243
(dp2244
g6
(dp2245
g8
S'_usr_share_pyshared_zmq_utils_jsonapi.html'
p2246
sg10
S'/usr/share/pyshared/zmq/utils/jsonapi'
p2247
sg12
g13
(g14
g15
NtRp2248
(dp2249
g18
I1
sg19
I0
sg20
I30
sg21
I0
sg22
I0
sg23
I9
sg24
I0
sbssg25
S'\x00%\x16\xf2bhx\x1a\xfc6\x87YJ\x06\\\xc6'
p2250
ssS'IPython_core_pylabtools'
p2251
(dp2252
g6
(dp2253
g8
S'IPython_core_pylabtools.html'
p2254
sg10
S'IPython/core/pylabtools'
p2255
sg12
g13
(g14
g15
NtRp2256
(dp2257
g18
I1
sg19
I0
sg20
I129
sg21
I0
sg22
I0
sg23
I106
sg24
I0
sbssg25
S'y\x14C\xf1\xd9\xe2Q\xb3Q\xe7\x06\x8b\xee\x9cA\xe1'
p2258
ssS'IPython_nbformat_v2_convert'
p2259
(dp2260
g6
(dp2261
g8
S'IPython_nbformat_v2_convert.html'
p2262
sg10
S'IPython/nbformat/v2/convert'
p2263
sg12
g13
(g14
g15
NtRp2264
(dp2265
g18
I1
sg19
I0
sg20
I16
sg21
I0
sg22
I0
sg23
I13
sg24
I0
sbssg25
S'7\xc3:\x16\xec=\x8e\xac\xd5\xda\xcd)z\xad\xdf\x05'
p2266
ssS'IPython_kernel_zmq_displayhook'
p2267
(dp2268
g6
(dp2269
g8
S'IPython_kernel_zmq_displayhook.html'
p2270
sg10
S'IPython/kernel/zmq/displayhook'
p2271
sg12
g13
(g14
g15
NtRp2272
(dp2273
g18
I1
sg19
I0
sg20
I41
sg21
I0
sg22
I0
sg23
I19
sg24
I0
sbssg25
S'\xc2\x93"|\xbf\xe8e\xa7{3\xcbn\xb0\xd8\'Z'
p2274
ssS'IPython_utils_decorators'
p2275
(dp2276
g6
(dp2277
g8
S'IPython_utils_decorators.html'
p2278
sg10
S'IPython/utils/decorators'
p2279
sg12
g13
(g14
g15
NtRp2280
(dp2281
g18
I1
sg19
I0
sg20
I14
sg21
I0
sg22
I0
sg23
I10
sg24
I0
sbssg25
S'i\x0ca\x19\x11\twP\xfa\x1b\x1f\xcf\xda#\xd1:'
p2282
ssS'IPython_utils_coloransi'
p2283
(dp2284
g6
(dp2285
g8
S'IPython_utils_coloransi.html'
p2286
sg10
S'IPython/utils/coloransi'
p2287
sg12
g13
(g14
g15
NtRp2288
(dp2289
g18
I1
sg19
I0
sg20
I67
sg21
I0
sg22
I0
sg23
I10
sg24
I0
sbssg25
S'\x06\xdcYT.\xc5\xa2\xd3\t?\x86\x05Q\x96\x9bL'
p2290
ssS'_usr_local_lib_python2_7_dist-packages_numpy-1_8_1-py2_7-linux-i686_egg_numpy_core_info'
p2291
(dp2292
g6
(dp2293
g8
S'_usr_local_lib_python2_7_dist-packages_numpy-1_8_1-py2_7-linux-i686_egg_numpy_core_info.html'
p2294
sg10
S'/usr/local/lib/python2.7/dist-packages/numpy-1.8.1-py2.7-linux-i686.egg/numpy/core/info'
p2295
sg12
g13
(g14
g15
NtRp2296
(dp2297
g18
I1
sg19
I0
sg20
I3
sg21
I0
sg22
I0
sg23
I0
sg24
I0
sbssg25
S'\x85\xb6\xda\x18M\xdd\xfd\x8a\xaeG7-.\xa5\xab0'
p2298
ssS'_usr_local_lib_python2_7_dist-packages_numpy-1_8_1-py2_7-linux-i686_egg_numpy_version'
p2299
(dp2300
g6
(dp2301
g8
S'_usr_local_lib_python2_7_dist-packages_numpy-1_8_1-py2_7-linux-i686_egg_numpy_version.html'
p2302
sg10
S'/usr/local/lib/python2.7/dist-packages/numpy-1.8.1-py2.7-linux-i686.egg/numpy/version'
p2303
sg12
g13
(g14
g15
NtRp2304
(dp2305
g18
I1
sg19
I0
sg20
I7
sg21
I0
sg22
I0
sg23
I1
sg24
I0
sbssg25
S'\x06\x1b\xe58M\xf4_\x18\x85\x05H\x13t\x11?\xe8'
p2306
ssS'_usr_local_lib_python2_7_dist-packages_numpy-1_8_1-py2_7-linux-i686_egg_numpy_lib_info'
p2307
(dp2308
g6
(dp2309
g8
S'_usr_local_lib_python2_7_dist-packages_numpy-1_8_1-py2_7-linux-i686_egg_numpy_lib_info.html'
p2310
sg10
S'/usr/local/lib/python2.7/dist-packages/numpy-1.8.1-py2.7-linux-i686.egg/numpy/lib/info'
p2311
sg12
g13
(g14
g15
NtRp2312
(dp2313
g18
I1
sg19
I0
sg20
I3
sg21
I0
sg22
I0
sg23
I0
sg24
I0
sbssg25
S'\x07\x9e\xa6!o8\x00`\xcf1\x0cz\xe8j*;'
p2314
ssS'_usr_local_lib_python2_7_dist-packages_numpy-1_8_1-py2_7-linux-i686_egg_numpy_compat___init__'
p2315
(dp2316
g6
(dp2317
g8
S'_usr_local_lib_python2_7_dist-packages_numpy-1_8_1-py2_7-linux-i686_egg_numpy_compat___init__.html'
p2318
sg10
S'/usr/local/lib/python2.7/dist-packages/numpy-1.8.1-py2.7-linux-i686.egg/numpy/compat/__init__'
p2319
sg12
g13
(g14
g15
NtRp2320
(dp2321
g18
I1
sg19
I0
sg20
I8
sg21
I0
sg22
I0
sg23
I0
sg24
I0
sbssg25
S'\x15\x0e\xb5\x81\r\xba,\xe3\xc7\x05Pc\xc1\x0eQ\x0c'
p2322
ssS'IPython_kernel_ioloop___init__'
p2323
(dp2324
g6
(dp2325
g8
S'IPython_kernel_ioloop___init__.html'
p2326
sg10
S'IPython/kernel/ioloop/__init__'
p2327
sg12
g13
(g14
g15
NtRp2328
(dp2329
g18
I1
sg19
I0
sg20
I2
sg21
I0
sg22
I0
sg23
I0
sg24
I0
sbssg25
S'W\\\x07^\x8f@\xe9i\xb2kz\xf8\x7f\x99\x89\xac'
p2330
ssS'_usr_local_lib_python2_7_dist-packages_numpy-1_8_1-py2_7-linux-i686_egg_numpy_polynomial_legendre'
p2331
(dp2332
g6
(dp2333
g8
S'_usr_local_lib_python2_7_dist-packages_numpy-1_8_1-py2_7-linux-i686_egg_numpy_polynomial_legendre.html'
p2334
sg10
S'/usr/local/lib/python2.7/dist-packages/numpy-1.8.1-py2.7-linux-i686.egg/numpy/polynomial/legendre'
p2335
sg12
g13
(g14
g15
NtRp2336
(dp2337
g18
I1
sg19
I0
sg20
I386
sg21
I0
sg22
I0
sg23
I348
sg24
I0
sbssg25
S'\xab\x81<=%:\xba\\\x15\xb3V\xdd\xa7tT\xb0'
p2338
ssS'IPython_core_magics_display'
p2339
(dp2340
g6
(dp2341
g8
S'IPython_core_magics_display.html'
p2342
sg10
S'IPython/core/magics/display'
p2343
sg12
g13
(g14
g15
NtRp2344
(dp2345
g18
I1
sg19
I0
sg20
I12
sg21
I0
sg22
I0
sg23
I4
sg24
I0
sbssg25
S'#\x1c\x82\x81\xce\xc7,\x96KLF^\x1e\xd5\xac\xbc'
p2346
ssS'_usr_share_pyshared_zmq___init__'
p2347
(dp2348
g6
(dp2349
g8
S'_usr_share_pyshared_zmq___init__.html'
p2350
sg10
S'/usr/share/pyshared/zmq/__init__'
p2351
sg12
g13
(g14
g15
NtRp2352
(dp2353
g18
I1
sg19
I0
sg20
I18
sg21
I0
sg22
I0
sg23
I10
sg24
I0
sbssg25
S'4s\x90?\xda\x05\x9fvI\x9fBy\xed\xcd\xb1\xff'
p2354
ssS'_usr_local_lib_python2_7_dist-packages_jinja2_bccache'
p2355
(dp2356
g6
(dp2357
g8
S'_usr_local_lib_python2_7_dist-packages_jinja2_bccache.html'
p2358
sg10
S'/usr/local/lib/python2.7/dist-packages/jinja2/bccache'
p2359
sg12
g13
(g14
g15
NtRp2360
(dp2361
g18
I1
sg19
I0
sg20
I143
sg21
I0
sg22
I0
sg23
I101
sg24
I0
sbssg25
S"\xc5\x0f'\xccc\xaf\xd1=|\xeey\xd9&\xf3>\x92"
p2362
ssS'_usr_local_lib_python2_7_dist-packages_numpy-1_8_1-py2_7-linux-i686_egg_numpy_lib_arrayterator'
p2363
(dp2364
g6
(dp2365
g8
S'_usr_local_lib_python2_7_dist-packages_numpy-1_8_1-py2_7-linux-i686_egg_numpy_lib_arrayterator.html'
p2366
sg10
S'/usr/local/lib/python2.7/dist-packages/numpy-1.8.1-py2.7-linux-i686.egg/numpy/lib/arrayterator'
p2367
sg12
g13
(g14
g15
NtRp2368
(dp2369
g18
I1
sg19
I0
sg20
I72
sg21
I0
sg22
I0
sg23
I58
sg24
I0
sbssg25
S'\xc5\x15Y\xe7\xf0i\xd6Y}\xe1#\xf8\x9bu\x05X'
p2370
ssS'IPython_core_magics_code'
p2371
(dp2372
g6
(dp2373
g8
S'IPython_core_magics_code.html'
p2374
sg10
S'IPython/core/magics/code'
p2375
sg12
g13
(g14
g15
NtRp2376
(dp2377
g18
I1
sg19
I0
sg20
I283
sg21
I0
sg22
I0
sg23
I244
sg24
I0
sbssg25
S'\x00\xd08wp\x13\xd5v\x8c\x03\x99\xb7\xfc\xc3\x02\xf6'
p2378
ssS'IPython_kernel_zmq_datapub'
p2379
(dp2380
g6
(dp2381
g8
S'IPython_kernel_zmq_datapub.html'
p2382
sg10
S'IPython/kernel/zmq/datapub'
p2383
sg12
g13
(g14
g15
NtRp2384
(dp2385
g18
I1
sg19
I0
sg20
I21
sg21
I0
sg22
I0
sg23
I7
sg24
I0
sbssg25
S'\xc9J\x03y\xe3|g\xc9\xc3A\xa0t\xf9v\x1eK'
p2386
ssS'IPython_core_hooks'
p2387
(dp2388
g6
(dp2389
g8
S'IPython_core_hooks.html'
p2390
sg10
S'IPython/core/hooks'
p2391
sg12
g13
(g14
g15
NtRp2392
(dp2393
g18
I1
sg19
I0
sg20
I73
sg21
I0
sg22
I0
sg23
I52
sg24
I0
sbssg25
S'\xb7o\xb5\xf7\x15I\x03\xe1\x91\xcf\x97I\xd1\xc3\xedy'
p2394
ssS'IPython_kernel_zmq_kernelapp'
p2395
(dp2396
g6
(dp2397
g8
S'IPython_kernel_zmq_kernelapp.html'
p2398
sg10
S'IPython/kernel/zmq/kernelapp'
p2399
sg12
g13
(g14
g15
NtRp2400
(dp2401
g18
I1
sg19
I0
sg20
I264
sg21
I0
sg22
I0
sg23
I175
sg24
I0
sbssg25
S'\xc6\xa8R<\xe3{\xdc:\xb0W\xcc8\x81\xcd\xd7\x00'
p2402
ssS'IPython_display'
p2403
(dp2404
g6
(dp2405
g8
S'IPython_display.html'
p2406
sg10
S'IPython/display'
p2407
sg12
g13
(g14
g15
NtRp2408
(dp2409
g18
I1
sg19
I0
sg20
I2
sg21
I0
sg22
I0
sg23
I0
sg24
I0
sbssg25
S'\xb9\xd0A\xc7\x1f\xa8n:\xe5\xaa\r\xf70H\x81\xc6'
p2410
ssS'_usr_local_lib_python2_7_dist-packages_numpy-1_8_1-py2_7-linux-i686_egg_numpy_testing___init__'
p2411
(dp2412
g6
(dp2413
g8
S'_usr_local_lib_python2_7_dist-packages_numpy-1_8_1-py2_7-linux-i686_egg_numpy_testing___init__.html'
p2414
sg10
S'/usr/local/lib/python2.7/dist-packages/numpy-1.8.1-py2.7-linux-i686.egg/numpy/testing/__init__'
p2415
sg12
g13
(g14
g15
NtRp2416
(dp2417
g18
I1
sg19
I0
sg20
I8
sg21
I0
sg22
I0
sg23
I0
sg24
I0
sbssg25
S'\t\x9b\xc2\xa9AKc\x96\xd1\xd1Vj\x9e\x0e>\x0f'
p2418
ssS'IPython_core_magics_basic'
p2419
(dp2420
g6
(dp2421
g8
S'IPython_core_magics_basic.html'
p2422
sg10
S'IPython/core/magics/basic'
p2423
sg12
g13
(g14
g15
NtRp2424
(dp2425
g18
I1
sg19
I0
sg20
I259
sg21
I0
sg22
I0
sg23
I201
sg24
I0
sbssg25
S'\xab\x0e\xa9\x06<\xa3\xab\xec\x99\x8e3_\xaf\xc4\xdft'
p2426
ssS'IPython_html_services_nbconvert_handlers'
p2427
(dp2428
g6
(dp2429
g8
S'IPython_html_services_nbconvert_handlers.html'
p2430
sg10
S'IPython/html/services/nbconvert/handlers'
p2431
sg12
g13
(g14
g15
NtRp2432
(dp2433
g18
I1
sg19
I0
sg20
I17
sg21
I0
sg22
I0
sg23
I9
sg24
I0
sbssg25
S'R\xcd\xec\x86\xa2\x0fH9\xf8\x8b\\uR\x90\xf9$'
p2434
ssS'IPython_nbformat_reader'
p2435
(dp2436
g6
(dp2437
g8
S'IPython_nbformat_reader.html'
p2438
sg10
S'IPython/nbformat/reader'
p2439
sg12
g13
(g14
g15
NtRp2440
(dp2441
g18
I1
sg19
I0
sg20
I25
sg21
I0
sg22
I0
sg23
I4
sg24
I0
sbssg25
S'\xbf\xc2`\xc3|7\x0b\xa5b\xbf\x10@B\xb5\x8b\xba'
p2442
ssS'IPython_html_services_notebooks_nbmanager'
p2443
(dp2444
g6
(dp2445
g8
S'IPython_html_services_notebooks_nbmanager.html'
p2446
sg10
S'IPython/html/services/notebooks/nbmanager'
p2447
sg12
g13
(g14
g15
NtRp2448
(dp2449
g18
I1
sg19
I0
sg20
I79
sg21
I0
sg22
I0
sg23
I35
sg24
I0
sbssg25
S'\xc3\xb7\x07\x84\xc2\xe9&\x0e\xb2\xbe"\xfa\xa7\xaa\xe9\xcb'
p2450
ssS'_usr_local_lib_python2_7_dist-packages_numpy-1_8_1-py2_7-linux-i686_egg_numpy_testing_nosetester'
p2451
(dp2452
g6
(dp2453
g8
S'_usr_local_lib_python2_7_dist-packages_numpy-1_8_1-py2_7-linux-i686_egg_numpy_testing_nosetester.html'
p2454
sg10
S'/usr/local/lib/python2.7/dist-packages/numpy-1.8.1-py2.7-linux-i686.egg/numpy/testing/nosetester'
p2455
sg12
g13
(g14
g15
NtRp2456
(dp2457
g18
I1
sg19
I0
sg20
I154
sg21
I0
sg22
I0
sg23
I125
sg24
I0
sbssg25
S'ws\xa2\xbfF\xf8?\x08\xb5\xa3\xd4\x14\x1f\x1e*V'
p2458
ssS'_usr_local_lib_python2_7_dist-packages_tornado-3_2-py2_7-linux-i686_egg_tornado_locale'
p2459
(dp2460
g6
(dp2461
g8
S'_usr_local_lib_python2_7_dist-packages_tornado-3_2-py2_7-linux-i686_egg_tornado_locale.html'
p2462
sg10
S'/usr/local/lib/python2.7/dist-packages/tornado-3.2-py2.7-linux-i686.egg/tornado/locale'
p2463
sg12
g13
(g14
g15
NtRp2464
(dp2465
g18
I1
sg19
I0
sg20
I201
sg21
I0
sg22
I0
sg23
I167
sg24
I0
sbssg25
S'/&\xc0\\\xef\xf7\x9b\xd4\xc5\xdaIp\xa0\xd8\xe7\x9b'
p2466
ssS'IPython_html_services_notebooks_handlers'
p2467
(dp2468
g6
(dp2469
g8
S'IPython_html_services_notebooks_handlers.html'
p2470
sg10
S'IPython/html/services/notebooks/handlers'
p2471
sg12
g13
(g14
g15
NtRp2472
(dp2473
g18
I1
sg19
I0
sg20
I135
sg21
I0
sg22
I0
sg23
I45
sg24
I0
sbssg25
S'\x19\roZ\xc6\xeb\xcd\xc4\xc2\xb0\x15J.\x1d:\xb9'
p2474
ssS'IPython_external_simplegeneric___init__'
p2475
(dp2476
g6
(dp2477
g8
S'IPython_external_simplegeneric___init__.html'
p2478
sg10
S'IPython/external/simplegeneric/__init__'
p2479
sg12
g13
(g14
g15
NtRp2480
(dp2481
g18
I1
sg19
I0
sg20
I4
sg21
I0
sg22
I0
sg23
I2
sg24
I0
sbssg25
S'?\xaf2\x18\xbb\xe5\xdcK\xb9\xb5\xc3VH\xf9\x91('
p2482
ssS'IPython_core_alias'
p2483
(dp2484
g6
(dp2485
g8
S'IPython_core_alias.html'
p2486
sg10
S'IPython/core/alias'
p2487
sg12
g13
(g14
g15
NtRp2488
(dp2489
g18
I1
sg19
I0
sg20
I100
sg21
I0
sg22
I0
sg23
I59
sg24
I0
sbssg25
S's\xc8\x1a\xcb\x80!\xe0&\xee\x16\x05\xfd7l7~'
p2490
ssS'IPython_core_magics_auto'
p2491
(dp2492
g6
(dp2493
g8
S'IPython_core_magics_auto.html'
p2494
sg10
S'IPython/core/magics/auto'
p2495
sg12
g13
(g14
g15
NtRp2496
(dp2497
g18
I1
sg19
I0
sg20
I39
sg21
I0
sg22
I0
sg23
I27
sg24
I0
sbssg25
S'}\xc2\xb7\x1a\xf7\tE-\xc0\x1a\xcb\xe1\xb0\x9d\xee\xb6'
p2498
ssS'IPython_html_notebookapp'
p2499
(dp2500
g6
(dp2501
g8
S'IPython_html_notebookapp.html'
p2502
sg10
S'IPython/html/notebookapp'
p2503
sg12
g13
(g14
g15
NtRp2504
(dp2505
g18
I1
sg19
I0
sg20
I390
sg21
I0
sg22
I0
sg23
I92
sg24
I0
sbssg25
S'\xbd\xcbg\xa7e6{\xf4RTc\x11\xab\xb9\xc8\xcc'
p2506
ssS'IPython_kernel_blocking___init__'
p2507
(dp2508
g6
(dp2509
g8
S'IPython_kernel_blocking___init__.html'
p2510
sg10
S'IPython/kernel/blocking/__init__'
p2511
sg12
g13
(g14
g15
NtRp2512
(dp2513
g18
I1
sg19
I0
sg20
I1
sg21
I0
sg22
I0
sg23
I0
sg24
I0
sbssg25
S'\x80\xf2j\xff\x0f\xdf,4q-&\xa3\xeb\rX\x93'
p2514
ssS'_usr_local_lib_python2_7_dist-packages_numpy-1_8_1-py2_7-linux-i686_egg_numpy_core_numeric'
p2515
(dp2516
g6
(dp2517
g8
S'_usr_local_lib_python2_7_dist-packages_numpy-1_8_1-py2_7-linux-i686_egg_numpy_core_numeric.html'
p2518
sg10
S'/usr/local/lib/python2.7/dist-packages/numpy-1.8.1-py2.7-linux-i686.egg/numpy/core/numeric'
p2519
sg12
g13
(g14
g15
NtRp2520
(dp2521
g18
I1
sg19
I0
sg20
I523
sg21
I0
sg22
I0
sg23
I336
sg24
I0
sbssg25
S'\xfc\xde\xd7\\^\x94\xfe\x8a\xb5\xe8\x08\x05\x8e\x93h\xab'
p2522
ssS'_usr_local_lib_python2_7_dist-packages_numpy-1_8_1-py2_7-linux-i686_egg_numpy_polynomial_polynomial'
p2523
(dp2524
g6
(dp2525
g8
S'_usr_local_lib_python2_7_dist-packages_numpy-1_8_1-py2_7-linux-i686_egg_numpy_polynomial_polynomial.html'
p2526
sg10
S'/usr/local/lib/python2.7/dist-packages/numpy-1.8.1-py2.7-linux-i686.egg/numpy/polynomial/polynomial'
p2527
sg12
g13
(g14
g15
NtRp2528
(dp2529
g18
I1
sg19
I0
sg20
I302
sg21
I0
sg22
I0
sg23
I268
sg24
I0
sbssg25
S'F\xe6\x83\xabo\xb5{\n\x08\x11\x9de5h\xd1\xd4'
p2530
ssS'_usr_local_lib_python2_7_dist-packages_numpy-1_8_1-py2_7-linux-i686_egg_numpy_lib__iotools'
p2531
(dp2532
g6
(dp2533
g8
S'_usr_local_lib_python2_7_dist-packages_numpy-1_8_1-py2_7-linux-i686_egg_numpy_lib__iotools.html'
p2534
sg10
S'/usr/local/lib/python2.7/dist-packages/numpy-1.8.1-py2.7-linux-i686.egg/numpy/lib/_iotools'
p2535
sg12
g13
(g14
g15
NtRp2536
(dp2537
g18
I1
sg19
I0
sg20
I372
sg21
I0
sg22
I0
sg23
I320
sg24
I0
sbssg25
S'\xe5j\x8fJ\xfe\xbb*\xa8\x8c\xc9g\x16?\x96\xb2\xea'
p2538
ssS'_usr_local_lib_python2_7_dist-packages_jinja2_tests'
p2539
(dp2540
g6
(dp2541
g8
S'_usr_local_lib_python2_7_dist-packages_jinja2_tests.html'
p2542
sg10
S'/usr/local/lib/python2.7/dist-packages/jinja2/tests'
p2543
sg12
g13
(g14
g15
NtRp2544
(dp2545
g18
I1
sg19
I0
sg20
I47
sg21
I0
sg22
I0
sg23
I24
sg24
I0
sbssg25
S'\xb1[}x+R\x19\xd1\xe4\xc4\xf3\xcb"5\xe8\xfd'
p2546
ssS'IPython_core_shadowns'
p2547
(dp2548
g6
(dp2549
g8
S'IPython_core_shadowns.html'
p2550
sg10
S'IPython/core/shadowns'
p2551
sg12
g13
(g14
g15
NtRp2552
(dp2553
g18
I1
sg19
I0
sg20
I0
sg21
I0
sg22
I0
sg23
I0
sg24
I0
sbssg25
S'\xec\x83Id\xb8\xe2sK\xb5WY\x8f\xd9\xe5\x9aC'
p2554
ssS'IPython_lib_clipboard'
p2555
(dp2556
g6
(dp2557
g8
S'IPython_lib_clipboard.html'
p2558
sg10
S'IPython/lib/clipboard'
p2559
sg12
g13
(g14
g15
NtRp2560
(dp2561
g18
I1
sg19
I0
sg20
I44
sg21
I0
sg22
I0
sg23
I36
sg24
I0
sbssg25
S'\xc0\xc0\x01\xd4\x9f\x07\xc7\x1eM\xde<\xef\xb7s\x7f\xef'
p2562
ssS'IPython_kernel___init__'
p2563
(dp2564
g6
(dp2565
g8
S'IPython_kernel___init__.html'
p2566
sg10
S'IPython/kernel/__init__'
p2567
sg12
g13
(g14
g15
NtRp2568
(dp2569
g18
I1
sg19
I0
sg20
I7
sg21
I0
sg22
I0
sg23
I0
sg24
I0
sbssg25
S'f#\x8f\x9a\xb6WV\xb9\xad\x0f\x02\xf0\xdd\xc7\xb1u'
p2570
ssS'IPython_core_extensions'
p2571
(dp2572
g6
(dp2573
g8
S'IPython_core_extensions.html'
p2574
sg10
S'IPython/core/extensions'
p2575
sg12
g13
(g14
g15
NtRp2576
(dp2577
g18
I1
sg19
I0
sg20
I81
sg21
I0
sg22
I0
sg23
I61
sg24
I0
sbssg25
S'uG8|\xdan+\xcf-%\xef\x00\xaf\xc3\x7f\xbf'
p2578
ssS'_usr_local_lib_python2_7_dist-packages_numpy-1_8_1-py2_7-linux-i686_egg_numpy_polynomial_hermite'
p2579
(dp2580
g6
(dp2581
g8
S'_usr_local_lib_python2_7_dist-packages_numpy-1_8_1-py2_7-linux-i686_egg_numpy_polynomial_hermite.html'
p2582
sg10
S'/usr/local/lib/python2.7/dist-packages/numpy-1.8.1-py2.7-linux-i686.egg/numpy/polynomial/hermite'
p2583
sg12
g13
(g14
g15
NtRp2584
(dp2585
g18
I1
sg19
I0
sg20
I382
sg21
I0
sg22
I0
sg23
I344
sg24
I0
sbssg25
S'B\xa8e0\xf2\x07\xcbs\x96\xd2\x1a30\xdc\x823'
p2586
ssS'_usr_share_pyshared_simplejson_scanner'
p2587
(dp2588
g6
(dp2589
g8
S'_usr_share_pyshared_simplejson_scanner.html'
p2590
sg10
S'/usr/share/pyshared/simplejson/scanner'
p2591
sg12
g13
(g14
g15
NtRp2592
(dp2593
g18
I1
sg19
I0
sg20
I60
sg21
I0
sg22
I0
sg23
I50
sg24
I0
sbssg25
S'\xfar\x91\xdb\x1f\xe8\xd9KC\\\xe7\xa7f\x16\x14:'
p2594
ssS'IPython_core_magics_osm'
p2595
(dp2596
g6
(dp2597
g8
S'IPython_core_magics_osm.html'
p2598
sg10
S'IPython/core/magics/osm'
p2599
sg12
g13
(g14
g15
NtRp2600
(dp2601
g18
I1
sg19
I0
sg20
I298
sg21
I0
sg22
I0
sg23
I239
sg24
I0
sbssg25
S'\xbf\x06\x86\t\xa0\xd7\xd1VJ\x8bfP\x19\x97+a'
p2602
ssS'_usr_local_lib_python2_7_dist-packages_tornado-3_2-py2_7-linux-i686_egg_tornado_template'
p2603
(dp2604
g6
(dp2605
g8
S'_usr_local_lib_python2_7_dist-packages_tornado-3_2-py2_7-linux-i686_egg_tornado_template.html'
p2606
sg10
S'/usr/local/lib/python2.7/dist-packages/tornado-3.2-py2.7-linux-i686.egg/tornado/template'
p2607
sg12
g13
(g14
g15
NtRp2608
(dp2609
g18
I1
sg19
I0
sg20
I455
sg21
I0
sg22
I0
sg23
I358
sg24
I0
sbssg25
S'\x9c\xe1Ny\xd9!)\x81|\x1eM\xf3U\xe9\xe1\x96'
p2610
ssS'IPython_utils_data'
p2611
(dp2612
g6
(dp2613
g8
S'IPython_utils_data.html'
p2614
sg10
S'IPython/utils/data'
p2615
sg12
g13
(g14
g15
NtRp2616
(dp2617
g18
I1
sg19
I0
sg20
I9
sg21
I0
sg22
I0
sg23
I2
sg24
I0
sbssg25
S'\xe6\xa8\xaf/\xe3\xb3\xf5}\xa7v\x8a\xa0q\x16,\xee'
p2618
ssS'IPython_html_utils'
p2619
(dp2620
g6
(dp2621
g8
S'IPython_html_utils.html'
p2622
sg10
S'IPython/html/utils'
p2623
sg12
g13
(g14
g15
NtRp2624
(dp2625
g18
I1
sg19
I0
sg20
I30
sg21
I0
sg22
I0
sg23
I9
sg24
I0
sbssg25
S'\xaeb\xa6\xf2e#"r{\xb1\xbdFutG\xe3'
p2626
ssS'IPython_core_shellapp'
p2627
(dp2628
g6
(dp2629
g8
S'IPython_core_shellapp.html'
p2630
sg10
S'IPython/core/shellapp'
p2631
sg12
g13
(g14
g15
NtRp2632
(dp2633
g18
I1
sg19
I0
sg20
I204
sg21
I0
sg22
I0
sg23
I138
sg24
I0
sbssg25
S'2\x91\xef\xdf\x00\xb9 L\xae\r\x12q\xd4K\xf8\xa7'
p2634
ssS'_usr_local_lib_python2_7_dist-packages_tornado-3_2-py2_7-linux-i686_egg_tornado_log'
p2635
(dp2636
g6
(dp2637
g8
S'_usr_local_lib_python2_7_dist-packages_tornado-3_2-py2_7-linux-i686_egg_tornado_log.html'
p2638
sg10
S'/usr/local/lib/python2.7/dist-packages/tornado-3.2-py2.7-linux-i686.egg/tornado/log'
p2639
sg12
g13
(g14
g15
NtRp2640
(dp2641
g18
I1
sg19
I0
sg20
I91
sg21
I0
sg22
I0
sg23
I69
sg24
I0
sbssg25
S'#eY\xa8\xcf\x11\xef\x8c5n\x946\xb2I\xe8\xea'
p2642
ssS'IPython_lib_latextools'
p2643
(dp2644
g6
(dp2645
g8
S'IPython_lib_latextools.html'
p2646
sg10
S'IPython/lib/latextools'
p2647
sg12
g13
(g14
g15
NtRp2648
(dp2649
g18
I1
sg19
I0
sg20
I109
sg21
I0
sg22
I0
sg23
I85
sg24
I0
sbssg25
S'\xf5\xea\xc6\xc0\xb7\xa2f^`\x15\x9f\x15@\x1cL\xc0'
p2650
ssS'_usr_local_lib_python2_7_dist-packages_numpy-1_8_1-py2_7-linux-i686_egg_numpy_ctypeslib'
p2651
(dp2652
g6
(dp2653
g8
S'_usr_local_lib_python2_7_dist-packages_numpy-1_8_1-py2_7-linux-i686_egg_numpy_ctypeslib.html'
p2654
sg10
S'/usr/local/lib/python2.7/dist-packages/numpy-1.8.1-py2.7-linux-i686.egg/numpy/ctypeslib'
p2655
sg12
g13
(g14
g15
NtRp2656
(dp2657
g18
I1
sg19
I0
sg20
I187
sg21
I0
sg22
I0
sg23
I144
sg24
I0
sbssg25
S'`:\xbbZ\x13\x98Y\xcas\xfd\xff\xebjE\x90)'
p2658
ssS'IPython_html_services_clusters___init__'
p2659
(dp2660
g6
(dp2661
g8
S'IPython_html_services_clusters___init__.html'
p2662
sg10
S'IPython/html/services/clusters/__init__'
p2663
sg12
g13
(g14
g15
NtRp2664
(dp2665
g18
I1
sg19
I0
sg20
I0
sg21
I0
sg22
I0
sg23
I0
sg24
I0
sbssg25
S'\xca\xf5\x9f\x7f\x88\xdfa\x831|T\x1d\xbc}\xa5v'
p2666
ssS'IPython_html_auth_login'
p2667
(dp2668
g6
(dp2669
g8
S'IPython_html_auth_login.html'
p2670
sg10
S'IPython/html/auth/login'
p2671
sg12
g13
(g14
g15
NtRp2672
(dp2673
g18
I1
sg19
I0
sg20
I20
sg21
I0
sg22
I0
sg23
I11
sg24
I0
sbssg25
S'-hvL\xe3\x00A\xf73F\xc6+eY-\xb6'
p2674
ssS'_usr_local_lib_python2_7_dist-packages_numpy-1_8_1-py2_7-linux-i686_egg_numpy_core_memmap'
p2675
(dp2676
g6
(dp2677
g8
S'_usr_local_lib_python2_7_dist-packages_numpy-1_8_1-py2_7-linux-i686_egg_numpy_core_memmap.html'
p2678
sg10
S'/usr/local/lib/python2.7/dist-packages/numpy-1.8.1-py2.7-linux-i686.egg/numpy/core/memmap'
p2679
sg12
g13
(g14
g15
NtRp2680
(dp2681
g18
I1
sg19
I0
sg20
I83
sg21
I0
sg22
I0
sg23
I67
sg24
I0
sbssg25
S'\x99uY\xc7L\xab\x9f\xc4e\xa5\xd0\xa1\xf7\xbd\xf8T'
p2682
ssS'IPython_external_path__path'
p2683
(dp2684
g6
(dp2685
g8
S'IPython_external_path__path.html'
p2686
sg10
S'IPython/external/path/_path'
p2687
sg12
g13
(g14
g15
NtRp2688
(dp2689
g18
I1
sg19
I0
sg20
I554
sg21
I0
sg22
I0
sg23
I369
sg24
I0
sbssg25
S'\x9c\xb7f\x87o\xa2f\x94\xcaz&\x96&\x18\x03f'
p2690
ssS'_usr_share_pyshared_zmq_eventloop_platform_auto'
p2691
(dp2692
g6
(dp2693
g8
S'_usr_share_pyshared_zmq_eventloop_platform_auto.html'
p2694
sg10
S'/usr/share/pyshared/zmq/eventloop/platform/auto'
p2695
sg12
g13
(g14
g15
NtRp2696
(dp2697
g18
I1
sg19
I0
sg20
I5
sg21
I0
sg22
I0
sg23
I1
sg24
I0
sbssg25
S'^\xba\x91G(\xe4e*\x94xMTx\xe4\xc9['
p2698
ssS'IPython_core_display_trap'
p2699
(dp2700
g6
(dp2701
g8
S'IPython_core_display_trap.html'
p2702
sg10
S'IPython/core/display_trap'
p2703
sg12
g13
(g14
g15
NtRp2704
(dp2705
g18
I1
sg19
I0
sg20
I26
sg21
I0
sg22
I0
sg23
I15
sg24
I0
sbssg25
S'MF\x01g4$,\xfd\x16\x00o\xa5w!U\xd1'
p2706
ssS'IPython_kernel_client'
p2707
(dp2708
g6
(dp2709
g8
S'IPython_kernel_client.html'
p2710
sg10
S'IPython/kernel/client'
p2711
sg12
g13
(g14
g15
NtRp2712
(dp2713
g18
I1
sg19
I0
sg20
I88
sg21
I0
sg22
I0
sg23
I54
sg24
I0
sbssg25
S"Ba\x0f\xbc\x83\xd4\xad'\xaddU.\xb5<\xe1\xf7"
p2714
ssS'IPython_core_magics___init__'
p2715
(dp2716
g6
(dp2717
g8
S'IPython_core_magics___init__.html'
p2718
sg10
S'IPython/core/magics/__init__'
p2719
sg12
g13
(g14
g15
NtRp2720
(dp2721
g18
I1
sg19
I0
sg20
I17
sg21
I0
sg22
I0
sg23
I0
sg24
I0
sbssg25
S'f\xa47\xd4\xa2\xbeVI\x7f\xdb\x88\xc7FX\x84\x7f'
p2722
ssS'_usr_share_pyshared_markupsafe___init__'
p2723
(dp2724
g6
(dp2725
g8
S'_usr_share_pyshared_markupsafe___init__.html'
p2726
sg10
S'/usr/share/pyshared/markupsafe/__init__'
p2727
sg12
g13
(g14
g15
NtRp2728
(dp2729
g18
I1
sg19
I0
sg20
I110
sg21
I0
sg22
I0
sg23
I56
sg24
I0
sbssg25
S'3%\x14s\x89\t|\x06\x9ccF\xf0\xf5\xd8\xad]'
p2730
ssS'IPython_core_magics_execution'
p2731
(dp2732
g6
(dp2733
g8
S'IPython_core_magics_execution.html'
p2734
sg10
S'IPython/core/magics/execution'
p2735
sg12
g13
(g14
g15
NtRp2736
(dp2737
g18
I1
sg19
I0
sg20
I479
sg21
I0
sg22
I0
sg23
I401
sg24
I0
sbssg25
S'G\xe2~\x9fu\xfb\xa7x\xa8\xb6\xf7\xb5f\x10oz'
p2738
ssS'IPython_nbformat_v2_nbpy'
p2739
(dp2740
g6
(dp2741
g8
S'IPython_nbformat_v2_nbpy.html'
p2742
sg10
S'IPython/nbformat/v2/nbpy'
p2743
sg12
g13
(g14
g15
NtRp2744
(dp2745
g18
I1
sg19
I0
sg20
I111
sg21
I0
sg22
I0
sg23
I89
sg24
I0
sbssg25
S'O\xa0/\xa8\x01*\x87\xb2\x8c\xd8A\xf5\xd8\xf3(\xeb'
p2746
ssS'IPython_utils_submodule'
p2747
(dp2748
g6
(dp2749
g8
S'IPython_utils_submodule.html'
p2750
sg10
S'IPython/utils/submodule'
p2751
sg12
g13
(g14
g15
NtRp2752
(dp2753
g18
I1
sg19
I0
sg20
I36
sg21
I0
sg22
I0
sg23
I8
sg24
I0
sbssg25
S'\x8b\x9c\xb6\x07~d2\x11\x05a\x94h\xb7\x1c\xeb\xc0'
p2754
ssS'IPython_kernel_channels'
p2755
(dp2756
g6
(dp2757
g8
S'IPython_kernel_channels.html'
p2758
sg10
S'IPython/kernel/channels'
p2759
sg12
g13
(g14
g15
NtRp2760
(dp2761
g18
I1
sg19
I0
sg20
I263
sg21
I0
sg22
I0
sg23
I186
sg24
I0
sbssg25
S'\xb3\xd19\x90\x04\xfe\xaa"\xf3:W\xf6\xc9\x8e\x9f\xc4'
p2762
ssS'_usr_local_lib_python2_7_dist-packages_numpy-1_8_1-py2_7-linux-i686_egg_numpy_core_function_base'
p2763
(dp2764
g6
(dp2765
g8
S'_usr_local_lib_python2_7_dist-packages_numpy-1_8_1-py2_7-linux-i686_egg_numpy_core_function_base.html'
p2766
sg10
S'/usr/local/lib/python2.7/dist-packages/numpy-1.8.1-py2.7-linux-i686.egg/numpy/core/function_base'
p2767
sg12
g13
(g14
g15
NtRp2768
(dp2769
g18
I1
sg19
I0
sg20
I24
sg21
I0
sg22
I0
sg23
I18
sg24
I0
sbssg25
S')\x99\x13b\x05\x8a)_\x9c\x8c\x030P\x11\x9a\x92'
p2770
ssS'IPython_utils_warn'
p2771
(dp2772
g6
(dp2773
g8
S'IPython_utils_warn.html'
p2774
sg10
S'IPython/utils/warn'
p2775
sg12
g13
(g14
g15
NtRp2776
(dp2777
g18
I1
sg19
I0
sg20
I17
sg21
I0
sg22
I0
sg23
I9
sg24
I0
sbssg25
S"\xd3\xe7\x94'\x00\x1eHz$u\xb7H\xd9$\x8f_"
p2778
ssS'_usr_local_lib_python2_7_dist-packages_jinja2_loaders'
p2779
(dp2780
g6
(dp2781
g8
S'_usr_local_lib_python2_7_dist-packages_jinja2_loaders.html'
p2782
sg10
S'/usr/local/lib/python2.7/dist-packages/jinja2/loaders'
p2783
sg12
g13
(g14
g15
NtRp2784
(dp2785
g18
I1
sg19
I0
sg20
I221
sg21
I0
sg22
I0
sg23
I136
sg24
I0
sbssg25
S'\x83&\xd8\xa0D\xd5\xfe\xbf\xb7@\xe28D\xf6\xc7]'
p2786
ssS'IPython_utils_tz'
p2787
(dp2788
g6
(dp2789
g8
S'IPython_utils_tz.html'
p2790
sg10
S'IPython/utils/tz'
p2791
sg12
g13
(g14
g15
NtRp2792
(dp2793
g18
I1
sg19
I0
sg20
I16
sg21
I0
sg22
I0
sg23
I1
sg24
I0
sbssg25
S'\xe6M\x8f\x92d\xf6\x0f^O\xce\xf1\xf7\x1e\x01\xd3\x1e'
p2794
ssS'IPython_core_usage'
p2795
(dp2796
g6
(dp2797
g8
S'IPython_core_usage.html'
p2798
sg10
S'IPython/core/usage'
p2799
sg12
g13
(g14
g15
NtRp2800
(dp2801
g18
I1
sg19
I0
sg20
I17
sg21
I0
sg22
I0
sg23
I2
sg24
I0
sbssg25
S'\xa9\xa0\x02\xdf\x7f\xd5\x14bf\xde\x93V\x86\xed)K'
p2802
ssS'IPython_html_tree___init__'
p2803
(dp2804
g6
(dp2805
g8
S'IPython_html_tree___init__.html'
p2806
sg10
S'IPython/html/tree/__init__'
p2807
sg12
g13
(g14
g15
NtRp2808
(dp2809
g18
I1
sg19
I0
sg20
I0
sg21
I0
sg22
I0
sg23
I0
sg24
I0
sbssg25
S'\xca\xf5\x9f\x7f\x88\xdfa\x831|T\x1d\xbc}\xa5v'
p2810
ssS'IPython_utils__tokenize_py2'
p2811
(dp2812
g6
(dp2813
g8
S'IPython_utils__tokenize_py2.html'
p2814
sg10
S'IPython/utils/_tokenize_py2'
p2815
sg12
g13
(g14
g15
NtRp2816
(dp2817
g18
I1
sg19
I0
sg20
I243
sg21
I0
sg22
I0
sg23
I172
sg24
I0
sbssg25
S'\x99\xaf]\x12\xd4\xcb\xd73\xc4\xbe\xd2Ez\xbc\xe6.'
p2818
ssS'IPython_html_services_nbconvert___init__'
p2819
(dp2820
g6
(dp2821
g8
S'IPython_html_services_nbconvert___init__.html'
p2822
sg10
S'IPython/html/services/nbconvert/__init__'
p2823
sg12
g13
(g14
g15
NtRp2824
(dp2825
g18
I1
sg19
I0
sg20
I0
sg21
I0
sg22
I0
sg23
I0
sg24
I0
sbssg25
S'\xca\xf5\x9f\x7f\x88\xdfa\x831|T\x1d\xbc}\xa5v'
p2826
ssS'IPython_kernel_managerabc'
p2827
(dp2828
g6
(dp2829
g8
S'IPython_kernel_managerabc.html'
p2830
sg10
S'IPython/kernel/managerabc'
p2831
sg12
g13
(g14
g15
NtRp2832
(dp2833
g18
I1
sg19
I0
sg20
I87
sg21
I0
sg22
I0
sg23
I35
sg24
I0
sbssg25
S'n\xe7Xj\x01I\xda\xed\x9e?\x0e\xa6\xb6d\xbfe'
p2834
ssS'_usr_local_lib_python2_7_dist-packages_tornado-3_2-py2_7-linux-i686_egg_tornado_simple_httpclient'
p2835
(dp2836
g6
(dp2837
g8
S'_usr_local_lib_python2_7_dist-packages_tornado-3_2-py2_7-linux-i686_egg_tornado_simple_httpclient.html'
p2838
sg10
S'/usr/local/lib/python2.7/dist-packages/tornado-3.2-py2.7-linux-i686.egg/tornado/simple_httpclient'
p2839
sg12
g13
(g14
g15
NtRp2840
(dp2841
g18
I1
sg19
I0
sg20
I338
sg21
I0
sg22
I0
sg23
I287
sg24
I0
sbssg25
S'5\xb1\x8f\xd8\xe3bv\r rt\xc5\x1c\x97E\x93'
p2842
ssS'_usr_share_pyshared_zmq_eventloop_platform_posix'
p2843
(dp2844
g6
(dp2845
g8
S'_usr_share_pyshared_zmq_eventloop_platform_posix.html'
p2846
sg10
S'/usr/share/pyshared/zmq/eventloop/platform/posix'
p2847
sg12
g13
(g14
g15
NtRp2848
(dp2849
g18
I1
sg19
I0
sg20
I36
sg21
I0
sg22
I0
sg23
I4
sg24
I0
sbssg25
S'\n\xf9\xa3K\xe7U\x15\xf1\x935\xe8\xe7\xc8\x89J%'
p2850
ssS'IPython_utils_zmqrelated'
p2851
(dp2852
g6
(dp2853
g8
S'IPython_utils_zmqrelated.html'
p2854
sg10
S'IPython/utils/zmqrelated'
p2855
sg12
g13
(g14
g15
NtRp2856
(dp2857
g18
I1
sg19
I0
sg20
I16
sg21
I0
sg22
I0
sg23
I5
sg24
I0
sbssg25
S'P\xcb(\xb5&\xfd&\xf0Ad;P\xe7\xc2\xed\xcc'
p2858
ssS'IPython_core_magics_namespace'
p2859
(dp2860
g6
(dp2861
g8
S'IPython_core_magics_namespace.html'
p2862
sg10
S'IPython/core/magics/namespace'
p2863
sg12
g13
(g14
g15
NtRp2864
(dp2865
g18
I1
sg19
I0
sg20
I247
sg21
I0
sg22
I0
sg23
I203
sg24
I0
sbssg25
S'Q\x0c\xc9\x16~\xae\x8d\xcf\tA\x80+\x827\r\x14'
p2866
ssS'IPython_external___init__'
p2867
(dp2868
g6
(dp2869
g8
S'IPython_external___init__.html'
p2870
sg10
S'IPython/external/__init__'
p2871
sg12
g13
(g14
g15
NtRp2872
(dp2873
g18
I1
sg19
I0
sg20
I1
sg21
I0
sg22
I0
sg23
I0
sg24
I0
sbssg25
S'\xb6\xb1\xc4\x03`\xea~\x08]\r\xf2\x81\x0e\x8f\xda\xe8'
p2874
ssS'IPython_html_services_sessions_handlers'
p2875
(dp2876
g6
(dp2877
g8
S'IPython_html_services_sessions_handlers.html'
p2878
sg10
S'IPython/html/services/sessions/handlers'
p2879
sg12
g13
(g14
g15
NtRp2880
(dp2881
g18
I1
sg19
I0
sg20
I69
sg21
I0
sg22
I0
sg23
I30
sg24
I0
sbssg25
S'\x1fD.\xf4kx\xaa\xe2\xcc\x8a#m\xfe\xe1\x99\x97'
p2882
ssS'_usr_share_pyshared_simplejson___init__'
p2883
(dp2884
g6
(dp2885
g8
S'_usr_share_pyshared_simplejson___init__.html'
p2886
sg10
S'/usr/share/pyshared/simplejson/__init__'
p2887
sg12
g13
(g14
g15
NtRp2888
(dp2889
g18
I1
sg19
I0
sg20
I75
sg21
I0
sg22
I0
sg23
I50
sg24
I0
sbssg25
S'\x87\xf8\xc37MP\xf8(}`f\xcf\x7f\x90\x95\xbe'
p2890
ssS'_usr_local_lib_python2_7_dist-packages_tornado-3_2-py2_7-linux-i686_egg_tornado_platform___init__'
p2891
(dp2892
g6
(dp2893
g8
S'_usr_local_lib_python2_7_dist-packages_tornado-3_2-py2_7-linux-i686_egg_tornado_platform___init__.html'
p2894
sg10
S'/usr/local/lib/python2.7/dist-packages/tornado-3.2-py2.7-linux-i686.egg/tornado/platform/__init__'
p2895
sg12
g13
(g14
g15
NtRp2896
(dp2897
g18
I1
sg19
I0
sg20
I0
sg21
I0
sg22
I0
sg23
I0
sg24
I0
sbssg25
S'\xca\xf5\x9f\x7f\x88\xdfa\x831|T\x1d\xbc}\xa5v'
p2898
ssS'IPython_utils_module_paths'
p2899
(dp2900
g6
(dp2901
g8
S'IPython_utils_module_paths.html'
p2902
sg10
S'IPython/utils/module_paths'
p2903
sg12
g13
(g14
g15
NtRp2904
(dp2905
g18
I1
sg19
I0
sg20
I30
sg21
I0
sg22
I0
sg23
I24
sg24
I0
sbssg25
S'\x84\x1c\xad[v#\x0c\xfaiH\xa0\xb5\nk\x1c,'
p2906
ssS'IPython_utils_timing'
p2907
(dp2908
g6
(dp2909
g8
S'IPython_utils_timing.html'
p2910
sg10
S'IPython/utils/timing'
p2911
sg12
g13
(g14
g15
NtRp2912
(dp2913
g18
I1
sg19
I0
sg20
I36
sg21
I0
sg22
I0
sg23
I24
sg24
I0
sbssg25
S'R\x19\xc7?&i\x13\xb7\xd5\x7f\xa9\x89+lz='
p2914
ssS'IPython_core_displayhook'
p2915
(dp2916
g6
(dp2917
g8
S'IPython_core_displayhook.html'
p2918
sg10
S'IPython/core/displayhook'
p2919
sg12
g13
(g14
g15
NtRp2920
(dp2921
g18
I1
sg19
I0
sg20
I114
sg21
I0
sg22
I0
sg23
I91
sg24
I0
sbssg25
S'\xd8\xd1\x106IT\x85s\x1d\x10Er\xe1\xe28`'
p2922
ssS'_usr_local_lib_python2_7_dist-packages_tornado-3_2-py2_7-linux-i686_egg_tornado_httpclient'
p2923
(dp2924
g6
(dp2925
g8
S'_usr_local_lib_python2_7_dist-packages_tornado-3_2-py2_7-linux-i686_egg_tornado_httpclient.html'
p2926
sg10
S'/usr/local/lib/python2.7/dist-packages/tornado-3.2-py2.7-linux-i686.egg/tornado/httpclient'
p2927
sg12
g13
(g14
g15
NtRp2928
(dp2929
g18
I1
sg19
I0
sg20
I210
sg21
I0
sg22
I0
sg23
I160
sg24
I0
sbssg25
S'\xb1[\xc9$_,HX(t\x7f\n\x91I\xafe'
p2930
ssS'_usr_local_lib_python2_7_dist-packages_jinja2_visitor'
p2931
(dp2932
g6
(dp2933
g8
S'_usr_local_lib_python2_7_dist-packages_jinja2_visitor.html'
p2934
sg10
S'/usr/local/lib/python2.7/dist-packages/jinja2/visitor'
p2935
sg12
g13
(g14
g15
NtRp2936
(dp2937
g18
I1
sg19
I0
sg20
I40
sg21
I0
sg22
I0
sg23
I8
sg24
I0
sbssg25
S'+&9m\xe7\x0f\xabq\x87\xaf;EL\x84#i'
p2938
ssS'_usr_local_lib_python2_7_dist-packages_jinja2_defaults'
p2939
(dp2940
g6
(dp2941
g8
S'_usr_local_lib_python2_7_dist-packages_jinja2_defaults.html'
p2942
sg10
S'/usr/local/lib/python2.7/dist-packages/jinja2/defaults'
p2943
sg12
g13
(g14
g15
NtRp2944
(dp2945
g18
I1
sg19
I0
sg20
I19
sg21
I0
sg22
I0
sg23
I0
sg24
I0
sbssg25
S'\xe2s1\x07\x11\xcc\xb8t@\xa5n<\x98\x97"j'
p2946
ssS'IPython_core_profiledir'
p2947
(dp2948
g6
(dp2949
g8
S'IPython_core_profiledir.html'
p2950
sg10
S'IPython/core/profiledir'
p2951
sg12
g13
(g14
g15
NtRp2952
(dp2953
g18
I1
sg19
I0
sg20
I137
sg21
I0
sg22
I0
sg23
I44
sg24
I0
sbssg25
S'G\x85\x97\xca\x87\xd7\xe4r\x01g\x89c\x9dL\x93m'
p2954
ssS'_usr_local_lib_python2_7_dist-packages_numpy-1_8_1-py2_7-linux-i686_egg_numpy_linalg_linalg'
p2955
(dp2956
g6
(dp2957
g8
S'_usr_local_lib_python2_7_dist-packages_numpy-1_8_1-py2_7-linux-i686_egg_numpy_linalg_linalg.html'
p2958
sg10
S'/usr/local/lib/python2.7/dist-packages/numpy-1.8.1-py2.7-linux-i686.egg/numpy/linalg/linalg'
p2959
sg12
g13
(g14
g15
NtRp2960
(dp2961
g18
I1
sg19
I0
sg20
I530
sg21
I0
sg22
I0
sg23
I463
sg24
I0
sbssg25
S'\xb7\xbep\xa8\xc1\xd2\xe0\x0f\x16Pa\xb7W\x85\xbe\x1b'
p2962
ssS'IPython_utils_syspathcontext'
p2963
(dp2964
g6
(dp2965
g8
S'IPython_utils_syspathcontext.html'
p2966
sg10
S'IPython/utils/syspathcontext'
p2967
sg12
g13
(g14
g15
NtRp2968
(dp2969
g18
I1
sg19
I0
sg20
I33
sg21
I0
sg22
I0
sg23
I22
sg24
I0
sbssg25
S'\x84dk\x13\xcd>\xa9\xad\x81`Q\xac&?yi'
p2970
ssS'IPython_utils_PyColorize'
p2971
(dp2972
g6
(dp2973
g8
S'IPython_utils_PyColorize.html'
p2974
sg10
S'IPython/utils/PyColorize'
p2975
sg12
g13
(g14
g15
NtRp2976
(dp2977
g18
I1
sg19
I0
sg20
I128
sg21
I0
sg22
I0
sg23
I95
sg24
I0
sbssg25
S'\xdc\xf3\x97\x80\xde\xd3\xdc\xca\x10\x97\x8aK\xae\x08\xba\x10'
p2978
ssS'_usr_local_lib_python2_7_dist-packages_numpy-1_8_1-py2_7-linux-i686_egg_numpy_lib_index_tricks'
p2979
(dp2980
g6
(dp2981
g8
S'_usr_local_lib_python2_7_dist-packages_numpy-1_8_1-py2_7-linux-i686_egg_numpy_lib_index_tricks.html'
p2982
sg10
S'/usr/local/lib/python2.7/dist-packages/numpy-1.8.1-py2.7-linux-i686.egg/numpy/lib/index_tricks'
p2983
sg12
g13
(g14
g15
NtRp2984
(dp2985
g18
I1
sg19
I0
sg20
I250
sg21
I0
sg22
I0
sg23
I185
sg24
I0
sbssg25
S'\n2\x7fe\xe13\t\x05u\x86\xca\x18\xea\x12\xa4\\'
p2986
ssS'IPython_nbformat___init__'
p2987
(dp2988
g6
(dp2989
g8
S'IPython_nbformat___init__.html'
p2990
sg10
S'IPython/nbformat/__init__'
p2991
sg12
g13
(g14
g15
NtRp2992
(dp2993
g18
I1
sg19
I0
sg20
I0
sg21
I0
sg22
I0
sg23
I0
sg24
I0
sbssg25
S'\xca\xf5\x9f\x7f\x88\xdfa\x831|T\x1d\xbc}\xa5v'
p2994
ssS'_usr_share_pyshared_zmq_eventloop_platform___init__'
p2995
(dp2996
g6
(dp2997
g8
S'_usr_share_pyshared_zmq_eventloop_platform___init__.html'
p2998
sg10
S'/usr/share/pyshared/zmq/eventloop/platform/__init__'
p2999
sg12
g13
(g14
g15
NtRp3000
(dp3001
g18
I1
sg19
I0
sg20
I0
sg21
I0
sg22
I0
sg23
I0
sg24
I0
sbssg25
S'\xca\xf5\x9f\x7f\x88\xdfa\x831|T\x1d\xbc}\xa5v'
p3002
ssS'IPython_kernel_zmq_pylab_config'
p3003
(dp3004
g6
(dp3005
g8
S'IPython_kernel_zmq_pylab_config.html'
p3006
sg10
S'IPython/kernel/zmq/pylab/config'
p3007
sg12
g13
(g14
g15
NtRp3008
(dp3009
g18
I1
sg19
I0
sg20
I34
sg21
I0
sg22
I0
sg23
I19
sg24
I0
sbssg25
S'\xb8\xc2\xe2\xbdVU\xeaQ\n8\x17\x05"mi@'
p3010
ssS'IPython_utils__process_common'
p3011
(dp3012
g6
(dp3013
g8
S'IPython_utils__process_common.html'
p3014
sg10
S'IPython/utils/_process_common'
p3015
sg12
g13
(g14
g15
NtRp3016
(dp3017
g18
I1
sg19
I0
sg20
I70
sg21
I0
sg22
I0
sg23
I47
sg24
I0
sbssg25
S't&x\xe5L\xd7\xb7!#y!\xb5W\xdc\x00\xa2'
p3018
ssS'_usr_local_lib_python2_7_dist-packages_numpy-1_8_1-py2_7-linux-i686_egg_numpy_polynomial_polytemplate'
p3019
(dp3020
g6
(dp3021
g8
S'_usr_local_lib_python2_7_dist-packages_numpy-1_8_1-py2_7-linux-i686_egg_numpy_polynomial_polytemplate.html'
p3022
sg10
S'/usr/local/lib/python2.7/dist-packages/numpy-1.8.1-py2.7-linux-i686.egg/numpy/polynomial/polytemplate'
p3023
sg12
g13
(g14
g15
NtRp3024
(dp3025
g18
I1
sg19
I0
sg20
I4
sg21
I0
sg22
I0
sg23
I0
sg24
I0
sbssg25
S'\xfe#\xfb\xef\x98\x14,W\xf7^\x14\xb0\x8e\xc5\xaat'
p3026
ssS'_usr_local_lib_python2_7_dist-packages_numpy-1_8_1-py2_7-linux-i686_egg_numpy_polynomial___init__'
p3027
(dp3028
g6
(dp3029
g8
S'_usr_local_lib_python2_7_dist-packages_numpy-1_8_1-py2_7-linux-i686_egg_numpy_polynomial___init__.html'
p3030
sg10
S'/usr/local/lib/python2.7/dist-packages/numpy-1.8.1-py2.7-linux-i686.egg/numpy/polynomial/__init__'
p3031
sg12
g13
(g14
g15
NtRp3032
(dp3033
g18
I1
sg19
I0
sg20
I11
sg21
I0
sg22
I0
sg23
I0
sg24
I0
sbssg25
S'OgG\x1b\x12\xc2+gP"1\xf7\xcdQ\xb8\xa8'
p3034
ssS'IPython_utils_contexts'
p3035
(dp3036
g6
(dp3037
g8
S'IPython_utils_contexts.html'
p3038
sg10
S'IPython/utils/contexts'
p3039
sg12
g13
(g14
g15
NtRp3040
(dp3041
g18
I1
sg19
I0
sg20
I20
sg21
I0
sg22
I0
sg23
I15
sg24
I0
sbssg25
S'#\xf9\xf5h\xdd\xe16p\xde_\xa2eWs\x8a\x1f'
p3042
ssS'IPython_nbformat_v1_nbjson'
p3043
(dp3044
g6
(dp3045
g8
S'IPython_nbformat_v1_nbjson.html'
p3046
sg10
S'IPython/nbformat/v1/nbjson'
p3047
sg12
g13
(g14
g15
NtRp3048
(dp3049
g18
I1
sg19
I0
sg20
I21
sg21
I0
sg22
I0
sg23
I5
sg24
I0
sbssg25
S'\xc6p\xe7\x9c\x05\x7f\x90\x94\x9d\x88\xea\x16\xcd\x1b\xaa\xf2'
p3050
ssS'_usr_local_lib_python2_7_dist-packages_numpy-1_8_1-py2_7-linux-i686_egg_numpy_fft_helper'
p3051
(dp3052
g6
(dp3053
g8
S'_usr_local_lib_python2_7_dist-packages_numpy-1_8_1-py2_7-linux-i686_egg_numpy_fft_helper.html'
p3054
sg10
S'/usr/local/lib/python2.7/dist-packages/numpy-1.8.1-py2.7-linux-i686.egg/numpy/fft/helper'
p3055
sg12
g13
(g14
g15
NtRp3056
(dp3057
g18
I1
sg19
I0
sg20
I51
sg21
I0
sg22
I0
sg23
I42
sg24
I0
sbssg25
S'\x10\xb4\xb5f\xf8\x0f\xb0\x95K\xc4\xc0B\xf3^\xd7\xe2'
p3058
ssS'_usr_local_lib_python2_7_dist-packages_jinja2_parser'
p3059
(dp3060
g6
(dp3061
g8
S'_usr_local_lib_python2_7_dist-packages_jinja2_parser.html'
p3062
sg10
S'/usr/local/lib/python2.7/dist-packages/jinja2/parser'
p3063
sg12
g13
(g14
g15
NtRp3064
(dp3065
g18
I1
sg19
I0
sg20
I646
sg21
I0
sg22
I0
sg23
I295
sg24
I0
sbssg25
S'W\x7f\xba\x0e\x99\x17@\xbc\r\x0f\x050\t\x95\xd5]'
p3066
sssS'version'
p3067
S'3.7.1'
p3068
sS'settings'
p3069
S'\xe3F{)~\x87\xd0\xa2L\x91\xc7:A\xa0>\x82'
p3070
sS'format'
p3071
I1
s.